A51 MACRO ASSEMBLER  PROJECTMAIN                                                          11/09/2012 17:30:11 PAGE     1


MACRO ASSEMBLER A51 V8.02
OBJECT MODULE PLACED IN ProjectMain.OBJ
ASSEMBLER INVOKED BY: C:\Keil\C51\BIN\A51.EXE ProjectMain.src PR(.\ProjectMain.ls1) EP DEBUG

LOC  OBJ            LINE     SOURCE

                       1     ; .\ProjectMain.SRC generated from: ProjectMain.c
                       2     ; COMPILER INVOKED BY:
                       3     ;        C:\Keil\C51\BIN\C51.EXE ProjectMain.c LARGE BROWSE DEBUG OBJECTEXTEND SRC(.\Projec
                             tMain.SRC)
                       4     
                       5     $nomod51 
                       6     
                       7     NAME    PROJECTMAIN
                       8     
  00B7                 9     ModuleSelect0   BIT     0B0H.7
  00B6                10     ModuleSelect1   BIT     0B0H.6
  0080                11     P0      DATA    080H
  0090                12     P1      DATA    090H
  00A0                13     P2      DATA    0A0H
  00B0                14     P3      DATA    0B0H
  00B4                15     T0      BIT     0B0H.4
  00D6                16     AC      BIT     0D0H.6
  00B5                17     T1      BIT     0B0H.5
  00AF                18     EA      BIT     0A8H.7
  00A8                19     IE      DATA    0A8H
  00B7                20     RD      BIT     0B0H.7
  00AC                21     ES      BIT     0A8H.4
  00B8                22     IP      DATA    0B8H
  0098                23     RI      BIT     098H.0
  00B2                24     INT0    BIT     0B0H.2
  00D7                25     CY      BIT     0D0H.7
  0099                26     TI      BIT     098H.1
  00B3                27     INT1    BIT     0B0H.3
  0086                28     Keyboard_key_10 BIT     080H.6
  00BC                29     PS      BIT     0B8H.4
  0081                30     SP      DATA    081H
  0085                31     Keyboard_key_11 BIT     080H.5
  0084                32     Keyboard_key_12 BIT     080H.4
  00D2                33     OV      BIT     0D0H.2
  00B6                34     WR      BIT     0B0H.6
  0095                35     lcd_d5  BIT     090H.5
  0080                36     Buzzer_pin      BIT     080H.0
  0096                37     lcd_d6  BIT     090H.6
  0099                38     SBUF    DATA    099H
  0087                39     PCON    DATA    087H
  0098                40     SCON    DATA    098H
  0089                41     TMOD    DATA    089H
  0088                42     TCON    DATA    088H
  0092                43     RS_lcd  BIT     090H.2
  0089                44     IE0     BIT     088H.1
  008B                45     IE1     BIT     088H.3
  00F0                46     B       DATA    0F0H
  0083                47     EM_lock_pin     BIT     080H.3
  00E0                48     ACC     DATA    0E0H
  00A9                49     ET0     BIT     0A8H.1
  00AB                50     ET1     BIT     0A8H.3
  008D                51     TF0     BIT     088H.5
  008F                52     TF1     BIT     088H.7
  009A                53     RB8     BIT     098H.2
  008C                54     TH0     DATA    08CH
  00A8                55     EX0     BIT     0A8H.0
  0088                56     IT0     BIT     088H.0
  008D                57     TH1     DATA    08DH
A51 MACRO ASSEMBLER  PROJECTMAIN                                                          11/09/2012 17:30:11 PAGE     2

  009B                58     TB8     BIT     098H.3
  00AA                59     EX1     BIT     0A8H.2
  008A                60     IT1     BIT     088H.2
  00D0                61     P       BIT     0D0H.0
  0094                62     lcd_d4_lsb      BIT     090H.4
  009F                63     SM0     BIT     098H.7
  008A                64     TL0     DATA    08AH
  009E                65     SM1     BIT     098H.6
  008B                66     TL1     DATA    08BH
  009D                67     SM2     BIT     098H.5
  0097                68     lcd_d7_msb      BIT     090H.7
  00B9                69     PT0     BIT     0B8H.1
  00BB                70     PT1     BIT     0B8H.3
  00D3                71     RS0     BIT     0D0H.3
  008C                72     TR0     BIT     088H.4
  00D4                73     RS1     BIT     0D0H.4
  008E                74     TR1     BIT     088H.6
  00B8                75     PX0     BIT     0B8H.0
  00BA                76     PX1     BIT     0B8H.2
  0083                77     DPH     DATA    083H
  0093                78     Enable_lcd      BIT     090H.3
  0082                79     DPL     DATA    082H
  009C                80     REN     BIT     098H.4
  00B0                81     RXD     BIT     0B0H.0
  00B1                82     TXD     BIT     0B0H.1
  00A0                83     Keyboard_key_1  BIT     0A0H.0
  00A1                84     Keyboard_key_2  BIT     0A0H.1
  00A2                85     Keyboard_key_3  BIT     0A0H.2
  00A3                86     Keyboard_key_4  BIT     0A0H.3
  00D5                87     F0      BIT     0D0H.5
  00A4                88     Keyboard_key_5  BIT     0A0H.4
  00A5                89     Keyboard_key_6  BIT     0A0H.5
  00A6                90     Keyboard_key_7  BIT     0A0H.6
  00A7                91     Keyboard_key_8  BIT     0A0H.7
  0087                92     Keyboard_key_9  BIT     080H.7
  00D0                93     PSW     DATA    0D0H
  0082                94     EM_lock_enabe_button    BIT     080H.2
                      95     ?PR?_fnModuleSelect?PROJECTMAIN          SEGMENT CODE 
                      96     ?PR?fnProjectMain?PROJECTMAIN            SEGMENT CODE 
                      97     ?XD?fnProjectMain?PROJECTMAIN            SEGMENT XDATA OVERLAYABLE 
                      98     ?PR?fnVehicleOnTheWay?PROJECTMAIN        SEGMENT CODE 
                      99     ?PR?chfnToCheckVehicleReachedToDestination?PROJECTMAIN SEGMENT CODE 
                     100     ?PR?fnToSendAlertMSGFromDestination?PROJECTMAIN SEGMENT CODE 
                     101     ?PR?fnInvalidAuthorisationAtDestination?PROJECTMAIN SEGMENT CODE 
                     102     ?PR?fnCargoTampered?PROJECTMAIN          SEGMENT CODE 
                     103     ?PR?fnInitialisationAtDestination?PROJECTMAIN SEGMENT CODE 
                     104     ?PR?fnToCheckInboxStatusAndDecryptCommandsIfAnySMS?PROJECTMAIN SEGMENT CODE 
                     105     ?PR?fnDecryptCommandsInSMS?PROJECTMAIN   SEGMENT CODE 
                     106     ?CO?PROJECTMAIN      SEGMENT CODE 
                     107     ?XD?PROJECTMAIN      SEGMENT XDATA 
                     108             EXTRN   CODE (fn_GSM_Send_Init)
                     109             EXTRN   CODE (uchfnCheckInboxStatus)
                     110             EXTRN   CODE (fnDeleteAllMessages)
                     111             EXTRN   CODE (fn_GETGPSCoordinates)
                     112             EXTRN   XDATA (guchmessagepacket)
                     113             EXTRN   CODE (_fnGSMSendMessage)
                     114             EXTRN   XDATA (?_fnGSMSendMessage?BYTE)
                     115             EXTRN   CODE (_strcat)
                     116             EXTRN   XDATA (?_strcat?BYTE)
                     117             EXTRN   CODE (_printf)
                     118             EXTRN   XDATA (?_printf?BYTE)
                     119             EXTRN   CODE (_fn_keyboard_12x1for_password)
                     120             EXTRN   CODE (_delay_in_seconds)
                     121             EXTRN   CODE (_fn_Display_String_LCD)
                     122             EXTRN   XDATA (key_pressed)
                     123             EXTRN   XDATA (guchCompleteGSMDataPacket)
A51 MACRO ASSEMBLER  PROJECTMAIN                                                          11/09/2012 17:30:11 PAGE     3

                     124             EXTRN   CODE (_fn_lcd_select_line_and_location)
                     125             EXTRN   CODE (_strstr)
                     126             EXTRN   XDATA (?_strstr?BYTE)
                     127             EXTRN   CODE (fn_GSM_Recieve_Init)
                     128             EXTRN   XDATA (EWIndicator)
                     129             EXTRN   CODE (fn_Receive_Serial)
                     130             EXTRN   XDATA (NSIndicator)
                     131             EXTRN   CODE (fnExtractPhoneNoAndMessage)
                     132             EXTRN   XDATA (guchphonenumberpacket)
                     133             EXTRN   XDATA (guchLongitude)
                     134             EXTRN   XDATA (guchLatitude)
                     135             EXTRN   XDATA (guchGSMPhoneNumber)
                     136             EXTRN   CODE (?C?IMUL)
                     137             EXTRN   CODE (?C?STRCPY)
                     138             PUBLIC  uchMsgStatus
                     139             PUBLIC  rfid_card_no
                     140             PUBLIC  uchBuff
                     141             PUBLIC  rfid_count
                     142             PUBLIC  destination_update
                     143             PUBLIC  uchTempVariable
                     144             PUBLIC  PHONE_NUMBERS
                     145             PUBLIC  PHONE_NUMBERFOR_VB
                     146             PUBLIC  string_names
                     147             PUBLIC  string_project_Partners
                     148             PUBLIC  string_project_name
                     149             PUBLIC  string_welcome
                     150             PUBLIC  string_IAmActive
                     151             PUBLIC  fnDecryptCommandsInSMS
                     152             PUBLIC  fnToCheckInboxStatusAndDecryptCommandsIfAnySMS
                     153             PUBLIC  fnInitialisationAtDestination
                     154             PUBLIC  fnCargoTampered
                     155             PUBLIC  fnInvalidAuthorisationAtDestination
                     156             PUBLIC  fnToSendAlertMSGFromDestination
                     157             PUBLIC  chfnToCheckVehicleReachedToDestination
                     158             PUBLIC  fnVehicleOnTheWay
                     159             PUBLIC  fnProjectMain
                     160             PUBLIC  _fnModuleSelect
                     161     
----                 162             RSEG  ?XD?fnProjectMain?PROJECTMAIN
0000                 163     ?fnProjectMain?BYTE:
0002                 164             ORG  2
0002                 165     uchserialdata?141:   DS   1
0000                 166             ORG  0
0000                 167               k?142:   DS   2
                     168     
----                 169             RSEG  ?XD?PROJECTMAIN
0000                 170     uchTempVariable:   DS   1
0001                 171     destination_update:   DS   1
0002                 172          rfid_count:   DS   1
0003                 173             uchBuff:   DS   30
0021                 174        rfid_card_no:   DS   16
0031                 175        uchMsgStatus:   DS   1
                     176     
----                 177             RSEG  ?CO?PROJECTMAIN
0000                 178     ?SC_0:
0000 426F6F74        179             DB  'B' ,'o' ,'o' ,'t' ,' ' ,'U' ,'p' ,' ' ,'M' ,'e' 
0004 20557020                
0008 4D65                    
000A 73736167        180             DB  's' ,'s' ,'a' ,'g' ,'e' ,' ' ,'f' ,'r' ,'o' ,'m' 
000E 65206672                
0012 6F6D                    
0014 2050726F        181             DB  ' ' ,'P' ,'r' ,'o' ,'j' ,'e' ,'c' ,'t' ,' ' ,'-' 
0018 6A656374                
001C 202D                    
001E 20492061        182             DB  ' ' ,'I' ,' ' ,'a' ,'m' ,' ' ,'A' ,'c' ,'t' ,'i' 
0022 6D204163                
A51 MACRO ASSEMBLER  PROJECTMAIN                                                          11/09/2012 17:30:11 PAGE     4

0026 7469                    
0028 766500          183             DB  'v' ,'e' ,000H
                     184     
002B                 185     ?SC_43:
002B 0A4D6573        186             DB  00AH,'M' ,'e' ,'s' ,'s' ,'a' ,'g' ,'e' ,' ' ,'S' 
002F 73616765                
0033 2053                    
0035 656E7420        187             DB  'e' ,'n' ,'t' ,' ' ,'t' ,'o' ,' ' ,'P' ,'r' ,'e' 
0039 746F2050                
003D 7265                    
003F 64656669        188             DB  'd' ,'e' ,'f' ,'i' ,'n' ,'e' ,'d' ,' ' ,'N' ,'u' 
0043 6E656420                
0047 4E75                    
0049 6D626572        189             DB  'm' ,'b' ,'e' ,'r' ,00AH,000H
004D 0A00                    
                     190     
004F                 191     ?SC_79:
004F 0A4D4F44        192             DB  00AH,'M' ,'O' ,'D' ,'E' ,'M' ,' ' ,'S' ,'e' ,'t' 
0053 454D2053                
0057 6574                    
0059 20696E20        193             DB  ' ' ,'i' ,'n' ,' ' ,'2' ,',' ,'1' ,',' ,'0' ,',' 
005D 322C312C                
0061 302C                    
0063 302C3020        194             DB  '0' ,',' ,'0' ,' ' ,'M' ,'o' ,'d' ,'e' ,' ' ,'t' 
0067 4D6F6465                
006B 2074                    
006D 6F205265        195             DB  'o' ,' ' ,'R' ,'e' ,'c' ,'i' ,'e' ,'v' ,'e' ,' ' 
0071 63696576                
0075 6520                    
0077 496E636F        196             DB  'I' ,'n' ,'c' ,'o' ,'m' ,'i' ,'n' ,'g' ,' ' ,'S' 
007B 6D696E67                
007F 2053                    
0081 4D53730A        197             DB  'M' ,'S' ,'s' ,00AH,000H
0085 00                      
                     198     
0086                 199     ?SC_134:
0086 67756368        200             DB  'g' ,'u' ,'c' ,'h' ,'C' ,'o' ,'m' ,'p' ,'l' ,'e' 
008A 436F6D70                
008E 6C65                    
0090 74654753        201             DB  't' ,'e' ,'G' ,'S' ,'M' ,'D' ,'a' ,'t' ,'a' ,'P' 
0094 4D446174                
0098 6150                    
009A 61636B65        202             DB  'a' ,'c' ,'k' ,'e' ,'t' ,' ' ,'=' ,' ' ,'%' ,'s' 
009E 74203D20                
00A2 2573                    
00A4 0A00            203             DB  00AH,000H
                     204     
00A6                 205     ?SC_166:
00A6 4C617469        206             DB  'L' ,'a' ,'t' ,'i' ,'t' ,'u' ,'d' ,'e' ,' ' ,'=' 
00AA 74756465                
00AE 203D                    
00B0 25732C25        207             DB  '%' ,'s' ,',' ,'%' ,'c' ,00AH,000H
00B4 630A00                  
                     208     
00B7                 209     ?SC_183:
00B7 4C6F6E67        210             DB  'L' ,'o' ,'n' ,'g' ,'i' ,'t' ,'u' ,'d' ,'e' ,' ' 
00BB 69747564                
00BF 6520                    
00C1 3D25732C        211             DB  '=' ,'%' ,'s' ,',' ,'%' ,'c' ,00AH,000H
00C5 25630A00                
                     212     
00C9                 213     ?SC_201:
00C9 20505245        214             DB  ' ' ,'P' ,'R' ,'E' ,'S' ,'S' ,' ' ,'L' ,'O' ,'C' 
00CD 5353204C                
00D1 4F43                    
00D3 4B204B45        215             DB  'K' ,' ' ,'K' ,'E' ,'Y' ,' ' ,000H
A51 MACRO ASSEMBLER  PROJECTMAIN                                                          11/09/2012 17:30:11 PAGE     5

00D7 592000                  
                     216     
00DA                 217     ?SC_218:
00DA 20202020        218             DB  ' ' ,' ' ,' ' ,' ' ,' ' ,' ' ,' ' ,' ' ,' ' ,' ' 
00DE 20202020                
00E2 2020                    
00E4 20202020        219             DB  ' ' ,' ' ,' ' ,' ' ,' ' ,' ' ,' ' ,000H
00E8 20202000                
                     220     
00EC                 221     ?SC_236:
00EC 43415247        222             DB  'C' ,'A' ,'R' ,'G' ,'O' ,' ' ,'I' ,'S' ,' ' ,'L' 
00F0 4F204953                
00F4 204C                    
00F6 4F434B45        223             DB  'O' ,'C' ,'K' ,'E' ,'D' ,' ' ,000H
00FA 442000                  
                     224     
00FD                 225     ?SC_253:
00FD 63617267        226             DB  'c' ,'a' ,'r' ,'g' ,'o' ,' ' ,'i' ,'s' ,' ' ,'a' 
0101 6F206973                
0105 2061                    
0107 7420736F        227             DB  't' ,' ' ,'s' ,'o' ,'u' ,'r' ,'c' ,'e' ,' ' ,'s' 
010B 75726365                
010F 2073                    
0111 74617469        228             DB  't' ,'a' ,'t' ,'i' ,'o' ,'n' ,000H
0115 6F6E00                  
                     229     
0118                 230     ?SC_280:
0118 43617267        231             DB  'C' ,'a' ,'r' ,'g' ,'o' ,' ' ,'I' ,'s' ,' ' ,'G' 
011C 6F204973                
0120 2047                    
0122 6F696E67        232             DB  'o' ,'i' ,'n' ,'g' ,'T' ,'o' ,000H
0126 546F00                  
                     233     
0129                 234     ?SC_297:
0129 41636861        235             DB  'A' ,'c' ,'h' ,'a' ,'r' ,'y' ,'a' ,' ' ,'C' ,'o' 
012D 72796120                
0131 436F                    
0133 6C6C6567        236             DB  'l' ,'l' ,'e' ,'g' ,'e' ,' ' ,000H
0137 652000                  
                     237     
013A                 238     ?SC_314:
013A 0A446573        239             DB  00AH,'D' ,'e' ,'s' ,'t' ,'i' ,'n' ,'a' ,'t' ,'i' 
013E 74696E61                
0142 7469                    
0144 6F6E2052        240             DB  'o' ,'n' ,' ' ,'R' ,'e' ,'a' ,'c' ,'h' ,'e' ,'d' 
0148 65616368                
014C 6564                    
014E 00              241             DB  000H
                     242     
014F                 243     ?SC_335:
014F 57414954        244             DB  'W' ,'A' ,'I' ,'T' ,'I' ,'N' ,'G' ,' ' ,'F' ,'O' 
0153 494E4720                
0157 464F                    
0159 52204D53        245             DB  'R' ,' ' ,'M' ,'S' ,'G' ,' ' ,000H
015D 472000                  
                     246     
0160                 247     ?SC_352:
0160 20204652        248             DB  ' ' ,' ' ,'F' ,'R' ,'O' ,'M' ,' ' ,'S' ,'O' ,'U' 
0164 4F4D2053                
0168 4F55                    
016A 52434520        249             DB  'R' ,'C' ,'E' ,' ' ,' ' ,' ' ,000H
016E 202000                  
                     250     
0171                 251     ?SC_369:
0171 0A576169        252             DB  00AH,'W' ,'a' ,'i' ,'t' ,'i' ,'n' ,'g' ,' ' ,'f' 
0175 74696E67                
A51 MACRO ASSEMBLER  PROJECTMAIN                                                          11/09/2012 17:30:11 PAGE     6

0179 2066                    
017B 6F722041        253             DB  'o' ,'r' ,' ' ,'A' ,'u' ,'t' ,'h' ,'o' ,'r' ,'i' 
017F 7574686F                
0183 7269                    
0185 73696E67        254             DB  's' ,'i' ,'n' ,'g' ,' ' ,'M' ,'e' ,'s' ,'s' ,'a' 
0189 204D6573                
018D 7361                    
018F 67652066        255             DB  'g' ,'e' ,' ' ,'f' ,'r' ,'o' ,'m' ,' ' ,'B' ,'a' 
0193 726F6D20                
0197 4261                    
0199 73652053        256             DB  's' ,'e' ,' ' ,'S' ,'t' ,'a' ,'t' ,'i' ,'o' ,'n' 
019D 74617469                
01A1 6F6E                    
01A3 00              257             DB  000H
                     258     
01A4                 259     ?SC_420:
01A4 0A417574        260             DB  00AH,'A' ,'u' ,'t' ,'h' ,'o' ,'r' ,'i' ,'s' ,'i' 
01A8 686F7269                
01AC 7369                    
01AE 6E67204D        261             DB  'n' ,'g' ,' ' ,'M' ,'e' ,'s' ,'s' ,'a' ,'g' ,'e' 
01B2 65737361                
01B6 6765                    
01B8 20524543        262             DB  ' ' ,'R' ,'E' ,'C' ,'I' ,'E' ,'V' ,'E' ,'D' ,000H
01BC 49455645                
01C0 4400                    
                     263     
01C2                 264     ?SC_450:
01C2 20535749        265             DB  ' ' ,'S' ,'W' ,'I' ,'P' ,'E' ,' ' ,'R' ,'F' ,'I' 
01C6 50452052                
01CA 4649                    
01CC 44204341        266             DB  'D' ,' ' ,'C' ,'A' ,'R' ,'D' ,' ' ,000H
01D0 52442000                
                     267     
01D4                 268     ?SC_468:
01D4 72666964        269             DB  'r' ,'f' ,'i' ,'d' ,' ' ,'c' ,'a' ,'r' ,'d' ,' ' 
01D8 20636172                
01DC 6420                    
01DE 6E6F2069        270             DB  'n' ,'o' ,' ' ,'i' ,'s' ,' ' ,'=' ,' ' ,'%' ,'s' 
01E2 73203D20                
01E6 2573                    
01E8 00              271             DB  000H
                     272     
01E9                 273     ?SC_489:
01E9 72666964        274             DB  'r' ,'f' ,'i' ,'d' ,' ' ,'c' ,'a' ,'r' ,'d' ,' ' 
01ED 20636172                
01F1 6420                    
01F3 6E6F2069        275             DB  'n' ,'o' ,' ' ,'i' ,'s' ,' ' ,'m' ,'a' ,'t' ,'c' 
01F7 73206D61                
01FB 7463                    
01FD 68656420        276             DB  'h' ,'e' ,'d' ,' ' ,000H
0201 00                      
                     277     
0202                 278     ?SC_514:
0202 6B657920        279             DB  'k' ,'e' ,'y' ,' ' ,'p' ,'r' ,'e' ,'s' ,'s' ,'e' 
0206 70726573                
020A 7365                    
020C 64203D20        280             DB  'd' ,' ' ,'=' ,' ' ,'%' ,'s' ,000H
0210 257300                  
                     281     
0213                 282     ?SC_531:
0213 63617267        283             DB  'c' ,'a' ,'r' ,'g' ,'o' ,' ' ,'i' ,'s' ,' ' ,'o' 
0217 6F206973                
021B 206F                    
021D 6E207468        284             DB  'n' ,' ' ,'t' ,'h' ,'e' ,' ' ,'w' ,'a' ,'y' ,000H
0221 65207761                
0225 7900                    
A51 MACRO ASSEMBLER  PROJECTMAIN                                                          11/09/2012 17:30:11 PAGE     7

                     285     
0227                 286     ?SC_551:
0227 43415247        287             DB  'C' ,'A' ,'R' ,'G' ,'O' ,' ' ,'I' ,'s' ,'O' ,'n' 
022B 4F204973                
022F 4F6E                    
0231 57415920        288             DB  'W' ,'A' ,'Y' ,' ' ,'T' ,'O' ,000H
0235 544F00                  
                     289     
0238                 290     ?SC_568:
0238 50415353        291             DB  'P' ,'A' ,'S' ,'S' ,'W' ,'O' ,'R' ,'D' ,' ' ,'M' 
023C 574F5244                
0240 204D                    
0242 41544348        292             DB  'A' ,'T' ,'C' ,'H' ,'E' ,'D' ,000H
0246 454400                  
                     293     
0249                 294     ?SC_585:
0249 43415554        295             DB  'C' ,'A' ,'U' ,'T' ,'I' ,'O' ,'N' ,':' ,' ' ,'Y' 
024D 494F4E3A                
0251 2059                    
0253 4F555220        296             DB  'O' ,'U' ,'R' ,' ' ,'V' ,'E' ,'H' ,'I' ,'C' ,'L' 
0257 56454849                
025B 434C                    
025D 45206E6F        297             DB  'E' ,' ' ,'n' ,'o' ,' ' ,'1' ,'1' ,'1' ,' ' ,00AH
0261 20313131                
0265 200A                    
0267 2000            298             DB  ' ' ,000H
                     299     
0269                 300     ?SC_617:
0269 4C4F434B        301             DB  'L' ,'O' ,'C' ,'K' ,' ' ,'I' ,'S' ,' ' ,'O' ,'P' 
026D 20495320                
0271 4F50                    
0273 454E4544        302             DB  'E' ,'N' ,'E' ,'D' ,' ' ,'S' ,'U' ,'C' ,'C' ,'E' 
0277 20535543                
027B 4345                    
027D 53534655        303             DB  'S' ,'S' ,'F' ,'U' ,'L' ,'L' ,'Y' ,' ' ,'A' ,'T' 
0281 4C4C5920                
0285 4154                    
0287 20444553        304             DB  ' ' ,'D' ,'E' ,'S' ,'T' ,'I' ,'N' ,'A' ,'T' ,'I' 
028B 54494E41                
028F 5449                    
0291 4F4E2000        305             DB  'O' ,'N' ,' ' ,000H
                     306     
0295                 307     ?SC_661:
0295 20495453        308             DB  ' ' ,'I' ,'T' ,'S' ,' ' ,'C' ,'O' ,'R' ,'D' ,'I' 
0299 20434F52                
029D 4449                    
029F 4E415445        309             DB  'N' ,'A' ,'T' ,'E' ,'S' ,' ' ,'A' ,'R' ,'E' ,' ' 
02A3 53204152                
02A7 4520                    
02A9 4000            310             DB  '@' ,000H
                     311     
02AB                 312     ?SC_683:
02AB 4E2000          313             DB  'N' ,' ' ,000H
                     314     
02AE                 315     ?SC_686:
02AE 4500            316             DB  'E' ,000H
                     317     
02B0                 318     ?SC_688:
02B0 4C4F434B        319             DB  'L' ,'O' ,'C' ,'K' ,' ' ,'I' ,'S' ,' ' ,'O' ,'P' 
02B4 20495320                
02B8 4F50                    
02BA 454E4544        320             DB  'E' ,'N' ,'E' ,'D' ,' ' ,'S' ,'U' ,'C' ,'C' ,'E' 
02BE 20535543                
02C2 4345                    
02C4 53534655        321             DB  'S' ,'S' ,'F' ,'U' ,'L' ,'L' ,'Y' ,' ' ,'A' ,'T' 
02C8 4C4C5920                
A51 MACRO ASSEMBLER  PROJECTMAIN                                                          11/09/2012 17:30:11 PAGE     8

02CC 4154                    
02CE 20444553        322             DB  ' ' ,'D' ,'E' ,'S' ,'T' ,'I' ,'N' ,'A' ,'T' ,'I' 
02D2 54494E41                
02D6 5449                    
02D8 4F4E0A00        323             DB  'O' ,'N' ,00AH,000H
                     324     
02DC                 325     ?SC_732:
02DC 20495453        326             DB  ' ' ,'I' ,'T' ,'S' ,' ' ,'C' ,'O' ,'R' ,'D' ,'I' 
02E0 20434F52                
02E4 4449                    
02E6 4E415445        327             DB  'N' ,'A' ,'T' ,'E' ,'S' ,' ' ,'A' ,'R' ,'E' ,00AH
02EA 53204152                
02EE 450A                    
02F0 2000            328             DB  ' ' ,000H
                     329     
02F2                 330     ?SC_754:
02F2 4E0A00          331             DB  'N' ,00AH,000H
                     332     
02F5                 333     ?SC_757:
02F5 450A00          334             DB  'E' ,00AH,000H
                     335     
02F8                 336     ?SC_760:
02F8 20414343        337             DB  ' ' ,'A' ,'C' ,'C' ,'E' ,'S' ,'S' ,' ' ,'D' ,'E' 
02FC 45535320                
0300 4445                    
0302 4E494544        338             DB  'N' ,'I' ,'E' ,'D' ,' ' ,000H
0306 2000                    
                     339     
0308                 340     ?SC_776:
0308 554E4155        341             DB  'U' ,'N' ,'A' ,'U' ,'T' ,'H' ,'O' ,'R' ,'I' ,'S' 
030C 54484F52                
0310 4953                    
0312 45442050        342             DB  'E' ,'D' ,' ' ,'P' ,'E' ,'R' ,'S' ,'I' ,'O' ,'N' 
0316 45525349                
031A 4F4E                    
031C 20495320        343             DB  ' ' ,'I' ,'S' ,' ' ,'T' ,'R' ,'Y' ,'I' ,'N' ,'G' 
0320 54525949                
0324 4E47                    
0326 20544F20        344             DB  ' ' ,'T' ,'O' ,' ' ,'O' ,'P' ,'E' ,'N' ,' ' ,'L' 
032A 4F50454E                
032E 204C                    
0330 4F434B20        345             DB  'O' ,'C' ,'K' ,' ' ,'A' ,'T' ,' ' ,'D' ,'E' ,'S' 
0334 41542044                
0338 4553                    
033A 54494E41        346             DB  'T' ,'I' ,'N' ,'A' ,'T' ,'I' ,'O' ,'N' ,00AH,000H
033E 54494F4E                
0342 0A00                    
                     347     
0344                 348     ?SC_836:
0344 49532054        349             DB  'I' ,'S' ,' ' ,'T' ,'A' ,'M' ,'P' ,'E' ,'R' ,'E' 
0348 414D5045                
034C 5245                    
034E 44212120        350             DB  'D' ,'!' ,'!' ,' ' ,' ' ,00AH,000H
0352 200A00                  
                     351     
0355                 352     ?SC_853:
0355 200D2049        353             DB  ' ' ,00DH,' ' ,'I' ,'T' ,'S' ,' ' ,'C' ,'O' ,'R' 
0359 54532043                
035D 4F52                    
035F 44494E41        354             DB  'D' ,'I' ,'N' ,'A' ,'T' ,'E' ,'S' ,' ' ,'A' ,'R' 
0363 54455320                
0367 4152                    
0369 450A2000        355             DB  'E' ,00AH,' ' ,000H
                     356     
036D                 357     ?SC_877:
036D 49532054        358             DB  'I' ,'S' ,' ' ,'T' ,'A' ,'M' ,'P' ,'E' ,'R' ,'E' 
A51 MACRO ASSEMBLER  PROJECTMAIN                                                          11/09/2012 17:30:11 PAGE     9

0371 414D5045                
0375 5245                    
0377 44212120        359             DB  'D' ,'!' ,'!' ,' ' ,' ' ,000H
037B 2000                    
                     360     
037D                 361     ?SC_893:
037D 43415554        362             DB  'C' ,'A' ,'U' ,'T' ,'I' ,'O' ,'N' ,':' ,' ' ,'Y' 
0381 494F4E3A                
0385 2059                    
0387 4F555220        363             DB  'O' ,'U' ,'R' ,' ' ,'V' ,'E' ,'H' ,'I' ,'C' ,'L' 
038B 56454849                
038F 434C                    
0391 45206E6F        364             DB  'E' ,' ' ,'n' ,'o' ,' ' ,'1' ,'1' ,'1' ,' ' ,000H
0395 20313131                
0399 2000                    
                     365     
039B                 366     ?SC_923:
039B 48617320        367             DB  'H' ,'a' ,'s' ,' ' ,'R' ,'E' ,'A' ,'C' ,'H' ,'E' 
039F 52454143                
03A3 4845                    
03A5 4420544F        368             DB  'D' ,' ' ,'T' ,'O' ,' ' ,'D' ,'E' ,'S' ,'T' ,'I' 
03A9 20444553                
03AD 5449                    
03AF 4E415449        369             DB  'N' ,'A' ,'T' ,'I' ,'O' ,'N' ,' ' ,000H
03B3 4F4E2000                
                     370     
03B7                 371     ?SC_951:
03B7 4D534720        372             DB  'M' ,'S' ,'G' ,' ' ,'S' ,'e' ,'n' ,'d' ,'T' ,'o' 
03BB 53656E64                
03BF 546F                    
03C1 42617365        373             DB  'B' ,'a' ,'s' ,'e' ,'S' ,'t' ,000H
03C5 537400                  
                     374     
03C8                 375     ?SC_968:
03C8 0A4E4557        376             DB  00AH,'N' ,'E' ,'W' ,' ' ,'M' ,'e' ,'s' ,'s' ,'a' 
03CC 204D6573                
03D0 7361                    
03D2 67652050        377             DB  'g' ,'e' ,' ' ,'P' ,'r' ,'e' ,'s' ,'e' ,'n' ,'t' 
03D6 72657365                
03DA 6E74                    
03DC 20696E20        378             DB  ' ' ,'i' ,'n' ,' ' ,'I' ,'N' ,'B' ,'O' ,'X' ,000H
03E0 494E424F                
03E4 5800                    
                     379     
03E6                 380     ?SC_998:
03E6 0A50686F        381             DB  00AH,'P' ,'h' ,'o' ,'n' ,'e' ,' ' ,'N' ,'u' ,'m' 
03EA 6E65204E                
03EE 756D                    
03F0 62657220        382             DB  'b' ,'e' ,'r' ,' ' ,'=' ,' ' ,'%' ,'s' ,00AH,000H
03F4 3D202573                
03F8 0A00                    
                     383     
03FA                 384     ?SC_1018:
03FA 0A4D6573        385             DB  00AH,'M' ,'e' ,'s' ,'s' ,'a' ,'g' ,'e' ,' ' ,'=' 
03FE 73616765                
0402 203D                    
0404 2025730A        386             DB  ' ' ,'%' ,'s' ,00AH,000H
0408 00                      
                     387     
0409                 388     ?SC_1033:
0409 0A4E4F20        389             DB  00AH,'N' ,'O' ,' ' ,'n' ,'e' ,'w' ,' ' ,'m' ,'e' 
040D 6E657720                
0411 6D65                    
0413 73736167        390             DB  's' ,'s' ,'a' ,'g' ,'e' ,' ' ,'i' ,'n' ,' ' ,'i' 
0417 6520696E                
041B 2069                    
A51 MACRO ASSEMBLER  PROJECTMAIN                                                          11/09/2012 17:30:11 PAGE    10

041D 6E626F78        391             DB  'n' ,'b' ,'o' ,'x' ,000H
0421 00                      
                     392     
0422                 393     ?SC_1058:
0422 0A494E42        394             DB  00AH,'I' ,'N' ,'B' ,'O' ,'X' ,' ' ,'E' ,'M' ,'P' 
0426 4F582045                
042A 4D50                    
042C 54590A00        395             DB  'T' ,'Y' ,00AH,000H
                     396     
0430                 397     ?SC_1072:
0430 0A455252        398             DB  00AH,'E' ,'R' ,'R' ,'O' ,'R' ,' ' ,'R' ,'e' ,'a' 
0434 4F522052                
0438 6561                    
043A 64696E67        399             DB  'd' ,'i' ,'n' ,'g' ,' ' ,'S' ,'t' ,'a' ,'t' ,'u' 
043E 20537461                
0442 7475                    
0444 7300            400             DB  's' ,000H
                     401     
0446                 402     ?SC_1094:
0446 0A496E62        403             DB  00AH,'I' ,'n' ,'b' ,'o' ,'x' ,' ' ,'S' ,'t' ,'a' 
044A 6F782053                
044E 7461                    
0450 74757320        404             DB  't' ,'u' ,'s' ,' ' ,'C' ,'h' ,'e' ,'c' ,'k' ,'e' 
0454 43686563                
0458 6B65                    
045A 6420616E        405             DB  'd' ,' ' ,'a' ,'n' ,'d' ,' ' ,'M' ,'e' ,'s' ,'s' 
045E 64204D65                
0462 7373                    
0464 61676520        406             DB  'a' ,'g' ,'e' ,' ' ,'D' ,'e' ,'c' ,'o' ,'d' ,'e' 
0468 4465636F                
046C 6465                    
046E 64206966        407             DB  'd' ,' ' ,'i' ,'f' ,' ' ,'a' ,'n' ,'y' ,' ' ,'p' 
0472 20616E79                
0476 2070                    
0478 72657365        408             DB  'r' ,'e' ,'s' ,'e' ,'n' ,'t' ,00AH,000H
047C 6E740A00                
                     409     
0480                 410     ?SC_1152:
0480 0A416C6C        411             DB  00AH,'A' ,'l' ,'l' ,' ' ,'M' ,'e' ,'s' ,'s' ,'a' 
0484 204D6573                
0488 7361                    
048A 67657320        412             DB  'g' ,'e' ,'s' ,' ' ,'D' ,'e' ,'l' ,'e' ,'t' ,'e' 
048E 44656C65                
0492 7465                    
0494 640A00          413             DB  'd' ,00AH,000H
                     414     
0497                 415     ?SC_1175:
0497 31323334        416             DB  '1' ,'2' ,'3' ,'4' ,000H
049B 00                      
                     417     
049C                 418     ?SC_1180:
049C 53544154        419             DB  'S' ,'T' ,'A' ,'T' ,'U' ,'S' ,000H
04A0 555300                  
                     420     
04A3                 421     ?SC_1187:
04A3 43415554        422             DB  'C' ,'A' ,'U' ,'T' ,'I' ,'O' ,'N' ,':' ,'S' ,'T' 
04A7 494F4E3A                
04AB 5354                    
04AD 41545553        423             DB  'A' ,'T' ,'U' ,'S' ,':' ,' ' ,'Y' ,'O' ,'U' ,'R' 
04B1 3A20594F                
04B5 5552                    
04B7 20564548        424             DB  ' ' ,'V' ,'E' ,'H' ,'I' ,'C' ,'L' ,'E' ,' ' ,'n' 
04BB 49434C45                
04BF 206E                    
04C1 6F203131        425             DB  'o' ,' ' ,'1' ,'1' ,'1' ,' ' ,000H
04C5 312000                  
A51 MACRO ASSEMBLER  PROJECTMAIN                                                          11/09/2012 17:30:11 PAGE    11

                     426     
04C8                 427     ?SC_1224:
04C8 20495427        428             DB  ' ' ,'I' ,'T' ,027H,'S' ,' ' ,'C' ,'O' ,'R' ,'D' 
04CC 5320434F                
04D0 5244                    
04D2 494E4154        429             DB  'I' ,'N' ,'A' ,'T' ,'E' ,'S' ,' ' ,'A' ,'R' ,'E' 
04D6 45532041                
04DA 5245                    
04DC 204000          430             DB  ' ' ,'@' ,000H
                     431     
04DF                 432     ?SC_1247:
04DF 0A204D65        433             DB  00AH,' ' ,'M' ,'e' ,'s' ,'s' ,'a' ,'g' ,'e' ,' ' 
04E3 73736167                
04E7 6520                    
04E9 53656E74        434             DB  'S' ,'e' ,'n' ,'t' ,' ' ,'w' ,'i' ,'t' ,'h' ,' ' 
04ED 20776974                
04F1 6820                    
04F3 74686973        435             DB  't' ,'h' ,'i' ,'s' ,' ' ,'B' ,'o' ,'d' ,'y' ,' ' 
04F7 20426F64                
04FB 7920                    
04FD 0A00            436             DB  00AH,000H
                     437     
04FF                 438     ?SC_1279:
04FF 25730A00        439             DB  '%' ,'s' ,00AH,000H
                     440     
0503                 441     string_IAmActive:
0503 20202049        442             DB  ' ' ,' ' ,' ' ,'I' ,' ' ,'A' ,'m' ,' ' ,'A' ,'c' 
0507 20416D20                
050B 4163                    
050D 74697665        443             DB  't' ,'i' ,'v' ,'e' ,' ' ,' ' ,000H
0511 202000                  
                     444     
                     445     
0514                 446     string_welcome:
0514 20555349        447             DB  ' ' ,'U' ,'S' ,'I' ,'N' ,'G' ,' ' ,'G' ,'P' ,'S' 
0518 4E472047                
051C 5053                    
051E 2C204753        448             DB  ',' ,' ' ,'G' ,'S' ,'M' ,' ' ,000H
0522 4D2000                  
                     449     
                     450     
0525                 451     string_project_name:
0525 43415247        452             DB  'C' ,'A' ,'R' ,'G' ,'O' ,' ' ,'P' ,'I' ,'L' ,'F' 
0529 4F205049                
052D 4C46                    
052F 45524147        453             DB  'E' ,'R' ,'A' ,'G' ,'E' ,' ' ,000H
0533 452000                  
                     454     
                     455     
0536                 456     string_project_Partners:
0536 50726F6A        457             DB  'P' ,'r' ,'o' ,'j' ,'e' ,'c' ,'t' ,' ' ,'p' ,'a' 
053A 65637420                
053E 7061                    
0540 72746E65        458             DB  'r' ,'t' ,'n' ,'e' ,'r' ,'s' ,000H
0544 727300                  
                     459     
                     460     
0547                 461     string_names:
0547 20202020        462             DB  ' ' ,' ' ,' ' ,' ' ,'N' ,'a' ,'m' ,'e' ,' ' ,'1' 
054B 4E616D65                
054F 2031                    
0551 20202020        463             DB  ' ' ,' ' ,' ' ,' ' ,' ' ,' ' ,000H
0555 202000                  
                     464     
0558 20202020        465             DB  ' ' ,' ' ,' ' ,' ' ,'N' ,'a' ,'m' ,'e' ,' ' ,'2' 
055C 4E616D65                
A51 MACRO ASSEMBLER  PROJECTMAIN                                                          11/09/2012 17:30:11 PAGE    12

0560 2032                    
0562 20202020        466             DB  ' ' ,' ' ,' ' ,' ' ,' ' ,' ' ,000H
0566 202000                  
                     467     
0569 20202020        468             DB  ' ' ,' ' ,' ' ,' ' ,'N' ,'a' ,'m' ,'e' ,' ' ,'3' 
056D 4E616D65                
0571 2033                    
0573 20202020        469             DB  ' ' ,' ' ,' ' ,' ' ,' ' ,' ' ,000H
0577 202000                  
                     470     
057A 20202020        471             DB  ' ' ,' ' ,' ' ,' ' ,'N' ,'a' ,'m' ,'e' ,' ' ,'4' 
057E 4E616D65                
0582 2034                    
0584 20202020        472             DB  ' ' ,' ' ,' ' ,' ' ,' ' ,' ' ,000H
0588 202000                  
                     473     
                     474     
058B                 475     PHONE_NUMBERFOR_VB:
058B 39373338        476             DB  '9' ,'7' ,'3' ,'8' ,'1' ,'8' ,'3' ,'6' ,'8' ,'8' 
058F 31383336                
0593 3838                    
0595 00              477             DB  000H
                     478     
0596 00000000        479             DB  000H,000H,000H,000H,000H,000H,000H,000H,000H
059A 00000000                
059E 00                      
                     480     
                     481     
059F                 482     PHONE_NUMBERS:
059F 39383830        483             DB  '9' ,'8' ,'8' ,'0' ,'2' ,'4' ,'8' ,'5' ,'0' ,'8' 
05A3 32343835                
05A7 3038                    
05A9 00              484             DB  000H
                     485     
05AA 00000000        486             DB  000H,000H,000H,000H,000H,000H,000H,000H,000H
05AE 00000000                
05B2 00                      
                     487     
05B3 39373338        488             DB  '9' ,'7' ,'3' ,'8' ,'1' ,'8' ,'3' ,'6' ,'8' ,'8' 
05B7 31383336                
05BB 3838                    
05BD 00              489             DB  000H
                     490     
05BE 00000000        491             DB  000H,000H,000H,000H,000H,000H,000H,000H,000H
05C2 00000000                
05C6 00                      
                     492     
                     493     
                     494     ; /*
                     495     ;     filename  :ProjectMain.c
                     496     ;       description     :transmit and receive data by serial port
                     497     ;       author          :apsis_team
                     498     ;       date            :
                     499     ; 
                     500     ; */
                     501     ; 
                     502     ; #include <reg51.h>
                     503     ; #include <stdio.h>
                     504     ; #include <string.h>
                     505     ; #include <stdlib.h>
                     506     ; #include "ProjectMain.h"
                     507     ; #include "serial_codes.h"
                     508     ; #include "delay.h"
                     509     ; #include "strings.h"
                     510     ; #include "LCD.h"
                     511     ; #include "pinallocation.h"
A51 MACRO ASSEMBLER  PROJECTMAIN                                                          11/09/2012 17:30:11 PAGE    13

                     512     ; #include "GPS_NMEA.h"
                     513     ; #include "GSMSIM300.h"
                     514     ; #include "keyboard.h"
                     515     ; 
                     516     ; 
                     517     ; #define PASSWORDLENGTH                        5
                     518     ; #define REACHED_TO_DESTINATION        1
                     519     ; #define       NOT_A_DESTINATION               0
                     520     ; #define RFID_CARD_NoLENGTH      11
                     521     ; 
                     522     ; extern unsigned char key_pressed[7];
                     523     ; extern unsigned char gdisplayuchBufffer[30];
                     524     ; extern unsigned char guchLatitude[11];
                     525     ; extern unsigned char NSIndicator;
                     526     ; extern unsigned char guchLongitude[11];
                     527     ; extern unsigned char EWIndicator;
                     528     ; extern unsigned char guchmessagepacket[40] ;
                     529     ; extern unsigned char guchphonenumberpacket[15],guchCompleteGSMDataPacket[160];
                     530     ; 
                     531     ; unsigned char uchTempVariable;
                     532     ; 
                     533     ; unsigned char uchBuff[30] ;
                     534     ; unsigned char destination_update;
                     535     ; unsigned char rfid_card_no[16];
                     536     ; unsigned char rfid_count;                       
                     537     ; 
                     538     ; 
                     539     ; 
                     540     ; 
                     541     ; unsigned char uchMsgStatus;
                     542     ;                                                                                          
                                                  
                     543     ; extern unsigned char unValueFromCounter[6];
                     544     ; 
                     545     ; extern unsigned char guchGSMPhoneNumber[15];
                     546     ; //unsigned char FlagVehicleLift,FlagVehicleHit,FlagSendSMS;
                     547     ; unsigned char code PHONE_NUMBERFOR_VB[20]=    {"9738183688"};
                     548     ; unsigned char code PHONE_NUMBERS[2][20]= {     "9880248508" ,
                     549     ;                                                                                       "97
                             38183688" 
                     550     ;                                                                                 }   ;
                     551     ; void fnModuleSelect(unsigned char uchModuleSelect)
                     552     
----                 553             RSEG  ?PR?_fnModuleSelect?PROJECTMAIN
0000                 554     L?0054:
                     555             USING   0
0000 EF              556             MOV     A,R7
0001 F0              557             MOVX    @DPTR,A
0002 7F03            558             MOV     R7,#03H
0004                 559     _fnModuleSelect:
                     560                             ; SOURCE LINE # 58
                     561     ;---- Variable 'uchModuleSelect?040' assigned to Register 'R7' ----
                     562     ; {
                     563                             ; SOURCE LINE # 59
                     564     ;       
                     565     ; 
                     566     ;       switch(uchModuleSelect)
                     567                             ; SOURCE LINE # 62
0004 EF              568             MOV     A,R7
0005 6013            569             JZ      ?C0005
0007 14              570             DEC     A
0008 600B            571             JZ      ?C0004
000A 14              572             DEC     A
000B 6003            573             JZ      ?C0003
000D 14              574             DEC     A
                     575     ;       {
A51 MACRO ASSEMBLER  PROJECTMAIN                                                          11/09/2012 17:30:11 PAGE    14

                     576                             ; SOURCE LINE # 63
                     577     ;               case SELECT_PC_ON_UART:
                     578                             ; SOURCE LINE # 64
000E                 579     ?C0002:
                     580     ;                                       ModuleSelect0   = 1;
                     581                             ; SOURCE LINE # 65
                     582     ;                                       ModuleSelect1   = 1;
                     583                             ; SOURCE LINE # 66
                     584     ;                                       break;
                     585                             ; SOURCE LINE # 67
000E 800F            586             SJMP    ?C0050
                     587     ;               case SELECT_GPS_ON_UART:
                     588                             ; SOURCE LINE # 68
0010                 589     ?C0003:
                     590     ;                                       ModuleSelect0   = 0;
                     591                             ; SOURCE LINE # 69
0010 C2B7            592             CLR     ModuleSelect0
                     593     ;                                       ModuleSelect1   = 1;
                     594                             ; SOURCE LINE # 70
0012 D2B6            595             SETB    ModuleSelect1
                     596     ;                                       break;
                     597                             ; SOURCE LINE # 71
0014 22              598             RET     
                     599     ;               case SELECT_GSM_ON_UART:
                     600                             ; SOURCE LINE # 72
0015                 601     ?C0004:
                     602     ;                                       ModuleSelect0   = 1;
                     603                             ; SOURCE LINE # 73
0015 D2B7            604             SETB    ModuleSelect0
                     605     ;                                       ModuleSelect1   = 0;
                     606                             ; SOURCE LINE # 74
0017 C2B6            607             CLR     ModuleSelect1
                     608     ;                                       break;
                     609                             ; SOURCE LINE # 75
0019 22              610             RET     
                     611     ;               case SELECT_RFID_ON_UART:
                     612                             ; SOURCE LINE # 76
001A                 613     ?C0005:
                     614     ;                                       ModuleSelect0   = 0;
                     615                             ; SOURCE LINE # 77
001A C2B7            616             CLR     ModuleSelect0
                     617     ;                                       ModuleSelect1   = 0;
                     618                             ; SOURCE LINE # 78
001C C2B6            619             CLR     ModuleSelect1
                     620     ;                                       break;
                     621                             ; SOURCE LINE # 79
001E 22              622             RET     
                     623     ;               default:
                     624                             ; SOURCE LINE # 80
001F                 625     ?C0050:
001F D2B7            626             SETB    ModuleSelect0
                     627     ;                                       ModuleSelect0   = 1;
                     628     ;                                       ModuleSelect1   = 1;
                     629                             ; SOURCE LINE # 82
0021 D2B6            630             SETB    ModuleSelect1
                     631     ;                                       break;
                     632                             ; SOURCE LINE # 83
                     633     ;       }
                     634                             ; SOURCE LINE # 84
                     635     ; }
                     636                             ; SOURCE LINE # 85
0023                 637     ?C0007:
0023 22              638             RET     
                     639     ; END OF _fnModuleSelect
                     640     
                     641     ; 
A51 MACRO ASSEMBLER  PROJECTMAIN                                                          11/09/2012 17:30:11 PAGE    15

                     642     ; 
                     643     ; void fnProjectMain(void)
                     644     
----                 645             RSEG  ?PR?fnProjectMain?PROJECTMAIN
0000                 646     fnProjectMain:
                     647             USING   0
                     648                             ; SOURCE LINE # 88
                     649     ; {
                     650                             ; SOURCE LINE # 89
                     651     ;       unsigned int k;
                     652     ;       delay_in_seconds(5);
                     653                             ; SOURCE LINE # 91
0000 7F05            654             MOV     R7,#05H
0002 120000   F      655             LCALL   _delay_in_seconds
                     656     ;       destination_update = NOT_A_DESTINATION;
                     657                             ; SOURCE LINE # 92
0005 E4              658             CLR     A
0006 900000   F      659             MOV     DPTR,#destination_update
0009 F0              660             MOVX    @DPTR,A
                     661     ;       fnModuleSelect(SELECT_GSM_ON_UART);// Giving time so that GSM Boots up properly    
                                  
                     662                             ; SOURCE LINE # 93
000A 7F01            663             MOV     R7,#01H
000C 120000   F      664             LCALL   _fnModuleSelect
                     665     ;       fn_GSM_Send_Init();                                //
                     666                             ; SOURCE LINE # 94
000F 120000   F      667             LCALL   fn_GSM_Send_Init
                     668     ;       for(k=0; k<2;k++)
                     669                             ; SOURCE LINE # 95
0012 E4              670             CLR     A
0013 900000   F      671             MOV     DPTR,#k?142
0016 F0              672             MOVX    @DPTR,A
0017 A3              673             INC     DPTR
0018 F0              674             MOVX    @DPTR,A
0019                 675     ?C0008:
0019 900000   F      676             MOV     DPTR,#k?142
001C E0              677             MOVX    A,@DPTR
001D FE              678             MOV     R6,A
001E A3              679             INC     DPTR
001F E0              680             MOVX    A,@DPTR
0020 FF              681             MOV     R7,A
0021 C3              682             CLR     C
0022 9402            683             SUBB    A,#02H
0024 EE              684             MOV     A,R6
0025 9400            685             SUBB    A,#00H
0027 5050            686             JNC     ?C0009
                     687     ;       {
                     688                             ; SOURCE LINE # 96
                     689     ;       strcpy(guchGSMPhoneNumber,PHONE_NUMBERS[k]);
                     690                             ; SOURCE LINE # 97
0029 7C00            691             MOV     R4,#00H
002B 7D14            692             MOV     R5,#014H
002D 120000   F      693             LCALL   ?C?IMUL
0030 7400     F      694             MOV     A,#LOW (PHONE_NUMBERS)
0032 2F              695             ADD     A,R7
0033 F9              696             MOV     R1,A
0034 7400     F      697             MOV     A,#HIGH (PHONE_NUMBERS)
0036 3E              698             ADDC    A,R6
0037 FA              699             MOV     R2,A
0038 7BFF            700             MOV     R3,#0FFH
003A 7800     F      701             MOV     R0,#LOW (guchGSMPhoneNumber)
003C 7C00     F      702             MOV     R4,#HIGH (guchGSMPhoneNumber)
003E 7D01            703             MOV     R5,#01H
0040 120000   F      704             LCALL   ?C?STRCPY
                     705     ;       strcpy(guchCompleteGSMDataPacket,"Boot Up Message from Project - I am Active");
                     706                             ; SOURCE LINE # 98
A51 MACRO ASSEMBLER  PROJECTMAIN                                                          11/09/2012 17:30:11 PAGE    16

0043 7800     F      707             MOV     R0,#LOW (guchCompleteGSMDataPacket)
0045 7C00     F      708             MOV     R4,#HIGH (guchCompleteGSMDataPacket)
0047 7D01            709             MOV     R5,#01H
0049 7BFF            710             MOV     R3,#0FFH
004B 7A00     F      711             MOV     R2,#HIGH (?SC_0)
004D 7900     F      712             MOV     R1,#LOW (?SC_0)
004F 120000   F      713             LCALL   ?C?STRCPY
                     714     ;       fnGSMSendMessage(guchGSMPhoneNumber,guchCompleteGSMDataPacket); 
                     715                             ; SOURCE LINE # 99
0052 900000   F      716             MOV     DPTR,#?_fnGSMSendMessage?BYTE+03H
0055 7401            717             MOV     A,#01H
0057 F0              718             MOVX    @DPTR,A
0058 A3              719             INC     DPTR
0059 7400     F      720             MOV     A,#HIGH (guchCompleteGSMDataPacket)
005B F0              721             MOVX    @DPTR,A
005C A3              722             INC     DPTR
005D 7400     F      723             MOV     A,#LOW (guchCompleteGSMDataPacket)
005F F0              724             MOVX    @DPTR,A
0060 7B01            725             MOV     R3,#01H
0062 7A00     F      726             MOV     R2,#HIGH (guchGSMPhoneNumber)
0064 7900     F      727             MOV     R1,#LOW (guchGSMPhoneNumber)
0066 120000   F      728             LCALL   _fnGSMSendMessage
                     729     ;       }
                     730                             ; SOURCE LINE # 100
0069 900000   F      731             MOV     DPTR,#k?142+01H
006C E0              732             MOVX    A,@DPTR
006D 04              733             INC     A
006E F0              734             MOVX    @DPTR,A
006F 70A8            735             JNZ     ?C0008
0071 900000   F      736             MOV     DPTR,#k?142
0074 E0              737             MOVX    A,@DPTR
0075 04              738             INC     A
0076 F0              739             MOVX    @DPTR,A
0077                 740     ?C0049:
0077 80A0            741             SJMP    ?C0008
0079                 742     ?C0009:
                     743     ; //    strcpy(guchGSMPhoneNumber,PHONE_NUMBERFOR_VB);
                     744     ; //    strcpy(guchCompleteGSMDataPacket,"Boot Up Message from Project - I am Active");
                     745     ; //    fnGSMSendMessage(guchGSMPhoneNumber,guchCompleteGSMDataPacket); 
                     746     ;       fnModuleSelect(SELECT_PC_ON_UART);
                     747                             ; SOURCE LINE # 104
0079 7F03            748             MOV     R7,#03H
007B 120000   F      749             LCALL   _fnModuleSelect
                     750     ;       printf("\nMessage Sent to Predefined Number\n");
                     751                             ; SOURCE LINE # 105
007E 7BFF            752             MOV     R3,#0FFH
0080 7A00     F      753             MOV     R2,#HIGH (?SC_43)
0082 7900     F      754             MOV     R1,#LOW (?SC_43)
0084 120000   F      755             LCALL   _printf
                     756     ;       RI=0;
                     757                             ; SOURCE LINE # 106
0087 C298            758             CLR     RI
                     759     ;       RI=0;
                     760                             ; SOURCE LINE # 107
0089 C298            761             CLR     RI
                     762     ;       
                     763     ;       fn_GSM_Recieve_Init();
                     764                             ; SOURCE LINE # 109
008B 120000   F      765             LCALL   fn_GSM_Recieve_Init
                     766     ;       fnModuleSelect(SELECT_PC_ON_UART);
                     767                             ; SOURCE LINE # 110
008E 7F03            768             MOV     R7,#03H
0090 120000   F      769             LCALL   _fnModuleSelect
                     770     ;       printf("\nMODEM Set in 2,1,0,0,0 Mode to Recieve Incoming SMSs\n");     
                     771                             ; SOURCE LINE # 111
0093 7BFF            772             MOV     R3,#0FFH
A51 MACRO ASSEMBLER  PROJECTMAIN                                                          11/09/2012 17:30:11 PAGE    17

0095 7A00     F      773             MOV     R2,#HIGH (?SC_79)
0097 7900     F      774             MOV     R1,#LOW (?SC_79)
0099 120000   F      775             LCALL   _printf
                     776     ;       fn_GETGPSCoordinates();
                     777                             ; SOURCE LINE # 112
009C 120000   F      778             LCALL   fn_GETGPSCoordinates
                     779     ;       fnModuleSelect(SELECT_PC_ON_UART);
                     780                             ; SOURCE LINE # 113
009F 7F03            781             MOV     R7,#03H
00A1 120000   F      782             LCALL   _fnModuleSelect
                     783     ;       printf("guchCompleteGSMDataPacket = %s\n",guchCompleteGSMDataPacket);
                     784                             ; SOURCE LINE # 114
00A4 900000   F      785             MOV     DPTR,#?_printf?BYTE+03H
00A7 7401            786             MOV     A,#01H
00A9 F0              787             MOVX    @DPTR,A
00AA A3              788             INC     DPTR
00AB 7400     F      789             MOV     A,#HIGH (guchCompleteGSMDataPacket)
00AD F0              790             MOVX    @DPTR,A
00AE A3              791             INC     DPTR
00AF 7400     F      792             MOV     A,#LOW (guchCompleteGSMDataPacket)
00B1 F0              793             MOVX    @DPTR,A
00B2 7BFF            794             MOV     R3,#0FFH
00B4 7A00     F      795             MOV     R2,#HIGH (?SC_134)
00B6 7900     F      796             MOV     R1,#LOW (?SC_134)
00B8 120000   F      797             LCALL   _printf
                     798     ;       printf("Latitude =%s,%c\n",guchLatitude,NSIndicator);
                     799                             ; SOURCE LINE # 115
00BB 900000   F      800             MOV     DPTR,#?_printf?BYTE+03H
00BE 7401            801             MOV     A,#01H
00C0 F0              802             MOVX    @DPTR,A
00C1 A3              803             INC     DPTR
00C2 7400     F      804             MOV     A,#HIGH (guchLatitude)
00C4 F0              805             MOVX    @DPTR,A
00C5 A3              806             INC     DPTR
00C6 7400     F      807             MOV     A,#LOW (guchLatitude)
00C8 F0              808             MOVX    @DPTR,A
00C9 900000   F      809             MOV     DPTR,#NSIndicator
00CC E0              810             MOVX    A,@DPTR
00CD 900000   F      811             MOV     DPTR,#?_printf?BYTE+06H
00D0 F0              812             MOVX    @DPTR,A
00D1 7BFF            813             MOV     R3,#0FFH
00D3 7A00     F      814             MOV     R2,#HIGH (?SC_166)
00D5 7900     F      815             MOV     R1,#LOW (?SC_166)
00D7 120000   F      816             LCALL   _printf
                     817     ;       printf("Longitude =%s,%c\n",guchLongitude,EWIndicator);
                     818                             ; SOURCE LINE # 116
00DA 900000   F      819             MOV     DPTR,#?_printf?BYTE+03H
00DD 7401            820             MOV     A,#01H
00DF F0              821             MOVX    @DPTR,A
00E0 A3              822             INC     DPTR
00E1 7400     F      823             MOV     A,#HIGH (guchLongitude)
00E3 F0              824             MOVX    @DPTR,A
00E4 A3              825             INC     DPTR
00E5 7400     F      826             MOV     A,#LOW (guchLongitude)
00E7 F0              827             MOVX    @DPTR,A
00E8 900000   F      828             MOV     DPTR,#EWIndicator
00EB E0              829             MOVX    A,@DPTR
00EC 900000   F      830             MOV     DPTR,#?_printf?BYTE+06H
00EF F0              831             MOVX    @DPTR,A
00F0 7BFF            832             MOV     R3,#0FFH
00F2 7A00     F      833             MOV     R2,#HIGH (?SC_183)
00F4 7900     F      834             MOV     R1,#LOW (?SC_183)
00F6 120000   F      835             LCALL   _printf
                     836     ;       
                     837     ;       fn_lcd_select_line_and_location(LCD_LINE_1, LOCATION_0);
                     838                             ; SOURCE LINE # 118
A51 MACRO ASSEMBLER  PROJECTMAIN                                                          11/09/2012 17:30:11 PAGE    18

00F9 E4              839             CLR     A
00FA FD              840             MOV     R5,A
00FB 7F01            841             MOV     R7,#01H
00FD 120000   F      842             LCALL   _fn_lcd_select_line_and_location
                     843     ;     fn_Display_String_LCD(string_project_name);
                     844                             ; SOURCE LINE # 119
0100 7BFF            845             MOV     R3,#0FFH
0102 7A00     F      846             MOV     R2,#HIGH (string_project_name)
0104 7900     F      847             MOV     R1,#LOW (string_project_name)
0106 120000   F      848             LCALL   _fn_Display_String_LCD
                     849     ;     fn_lcd_select_line_and_location(LCD_LINE_2, LOCATION_0);
                     850                             ; SOURCE LINE # 120
0109 E4              851             CLR     A
010A FD              852             MOV     R5,A
010B 7F02            853             MOV     R7,#02H
010D 120000   F      854             LCALL   _fn_lcd_select_line_and_location
                     855     ;     fn_Display_String_LCD(string_welcome);
                     856                             ; SOURCE LINE # 121
0110 7BFF            857             MOV     R3,#0FFH
0112 7A00     F      858             MOV     R2,#HIGH (string_welcome)
0114 7900     F      859             MOV     R1,#LOW (string_welcome)
0116 120000   F      860             LCALL   _fn_Display_String_LCD
                     861     ;     
                     862     ; 
                     863     ; 
                     864     ;       P2=0xff;
                     865                             ; SOURCE LINE # 125
0119 75A0FF          866             MOV     P2,#0FFH
011C                 867     ?C0011:
                     868     ;       
                     869     ;   while(1)
                     870                             ; SOURCE LINE # 127
                     871     ;   {
                     872                             ; SOURCE LINE # 128
                     873     ;       Buzzer_pin=BUZZERDISABLE;
                     874                             ; SOURCE LINE # 129
011C C280            875             CLR     Buzzer_pin
                     876     ;       if(EM_lock_pin!=LOCKENABLED)
                     877                             ; SOURCE LINE # 130
011E 30834A          878             JNB     EM_lock_pin,?C0013
                     879     ; 
                     880     ;       {
                     881                             ; SOURCE LINE # 132
                     882     ;               fn_lcd_select_line_and_location(LCD_LINE_1,LOCATION_0);
                     883                             ; SOURCE LINE # 133
0121 E4              884             CLR     A
0122 FD              885             MOV     R5,A
0123 7F01            886             MOV     R7,#01H
0125 120000   F      887             LCALL   _fn_lcd_select_line_and_location
                     888     ;               fn_Display_String_LCD(" PRESS LOCK KEY ");
                     889                             ; SOURCE LINE # 134
0128 7BFF            890             MOV     R3,#0FFH
012A 7A00     F      891             MOV     R2,#HIGH (?SC_201)
012C 7900     F      892             MOV     R1,#LOW (?SC_201)
012E 120000   F      893             LCALL   _fn_Display_String_LCD
                     894     ;               fn_lcd_select_line_and_location(LCD_LINE_2,LOCATION_0);
                     895                             ; SOURCE LINE # 135
0131 E4              896             CLR     A
0132 FD              897             MOV     R5,A
0133 7F02            898             MOV     R7,#02H
0135 120000   F      899             LCALL   _fn_lcd_select_line_and_location
                     900     ;               fn_Display_String_LCD("                 ");
                     901                             ; SOURCE LINE # 136
0138 7BFF            902             MOV     R3,#0FFH
013A 7A00     F      903             MOV     R2,#HIGH (?SC_218)
013C 7900     F      904             MOV     R1,#LOW (?SC_218)
A51 MACRO ASSEMBLER  PROJECTMAIN                                                          11/09/2012 17:30:11 PAGE    19

013E 120000   F      905             LCALL   _fn_Display_String_LCD
0141                 906     ?C0014:
                     907     ; 
                     908     ;               while(EM_lock_enabe_button==1);
                     909                             ; SOURCE LINE # 138
0141 2082FD          910             JB      EM_lock_enabe_button,?C0014
0144                 911     ?C0015:
                     912     ;               EM_lock_pin=LOCKENABLED;
                     913                             ; SOURCE LINE # 139
0144 C283            914             CLR     EM_lock_pin
                     915     ;               fn_lcd_select_line_and_location(LCD_LINE_1,LOCATION_0);
                     916                             ; SOURCE LINE # 140
0146 E4              917             CLR     A
0147 FD              918             MOV     R5,A
0148 7F01            919             MOV     R7,#01H
014A 120000   F      920             LCALL   _fn_lcd_select_line_and_location
                     921     ;               fn_Display_String_LCD("CARGO IS LOCKED ");
                     922                             ; SOURCE LINE # 141
014D 7BFF            923             MOV     R3,#0FFH
014F 7A00     F      924             MOV     R2,#HIGH (?SC_236)
0151 7900     F      925             MOV     R1,#LOW (?SC_236)
0153 120000   F      926             LCALL   _fn_Display_String_LCD
                     927     ;               fn_lcd_select_line_and_location(LCD_LINE_2,LOCATION_0);
                     928                             ; SOURCE LINE # 142
0156 E4              929             CLR     A
0157 FD              930             MOV     R5,A
0158 7F02            931             MOV     R7,#02H
015A 120000   F      932             LCALL   _fn_lcd_select_line_and_location
                     933     ;               fn_Display_String_LCD("                 ");
                     934                             ; SOURCE LINE # 143
015D 7BFF            935             MOV     R3,#0FFH
015F 7A00     F      936             MOV     R2,#HIGH (?SC_218)
0161 7900     F      937             MOV     R1,#LOW (?SC_218)
0163 120000   F      938             LCALL   _fn_Display_String_LCD
                     939     ;          delay_in_seconds(1);
                     940                             ; SOURCE LINE # 144
0166 7F01            941             MOV     R7,#01H
0168 120000   F      942             LCALL   _delay_in_seconds
                     943     ;       }
                     944                             ; SOURCE LINE # 145
016B                 945     ?C0013:
                     946     ; 
                     947     ; 
                     948     ; 
                     949     ;       
                     950     ;       strcpy(uchBuff ,"cargo is at source station") ;
                     951                             ; SOURCE LINE # 150
016B 7800     F      952             MOV     R0,#LOW (uchBuff)
016D 7C00     F      953             MOV     R4,#HIGH (uchBuff)
016F 7D01            954             MOV     R5,#01H
0171 7BFF            955             MOV     R3,#0FFH
0173 7A00     F      956             MOV     R2,#HIGH (?SC_253)
0175 7900     F      957             MOV     R1,#LOW (?SC_253)
0177 120000   F      958             LCALL   ?C?STRCPY
                     959     ;       fn_lcd_select_line_and_location(LCD_LINE_1,LOCATION_0);
                     960                             ; SOURCE LINE # 151
017A E4              961             CLR     A
017B FD              962             MOV     R5,A
017C 7F01            963             MOV     R7,#01H
017E 120000   F      964             LCALL   _fn_lcd_select_line_and_location
                     965     ;       fn_Display_String_LCD("Cargo Is GoingTo");
                     966                             ; SOURCE LINE # 152
0181 7BFF            967             MOV     R3,#0FFH
0183 7A00     F      968             MOV     R2,#HIGH (?SC_280)
0185 7900     F      969             MOV     R1,#LOW (?SC_280)
0187 120000   F      970             LCALL   _fn_Display_String_LCD
A51 MACRO ASSEMBLER  PROJECTMAIN                                                          11/09/2012 17:30:11 PAGE    20

                     971     ;       fn_lcd_select_line_and_location(LCD_LINE_2,LOCATION_0);
                     972                             ; SOURCE LINE # 153
018A E4              973             CLR     A
018B FD              974             MOV     R5,A
018C 7F02            975             MOV     R7,#02H
018E 120000   F      976             LCALL   _fn_lcd_select_line_and_location
                     977     ;       fn_Display_String_LCD("Acharya College ");
                     978                             ; SOURCE LINE # 154
0191 7BFF            979             MOV     R3,#0FFH
0193 7A00     F      980             MOV     R2,#HIGH (?SC_297)
0195 7900     F      981             MOV     R1,#LOW (?SC_297)
0197 120000   F      982             LCALL   _fn_Display_String_LCD
019A                 983     ?C0016:
                     984     ;       //delay_in_seconds(1);
                     985     ; 
                     986     ; //    fnToCheckInboxStatusAndDecryptCommandsIfAnySMS();          /* Function to read mess
                             ages if any*/ //fnToCheckInboxStatusAndDecryptIfAny
                     987     ;       
                     988     ;       while(!EM_lock_pin && !destination_update)        /* If  lock is not tampered on th
                             e way and if msg received to get status then send the status                 */
                     989                             ; SOURCE LINE # 159
019A 208318          990             JB      EM_lock_pin,?C0017
019D 900000   F      991             MOV     DPTR,#destination_update
01A0 E0              992             MOVX    A,@DPTR
01A1 7012            993             JNZ     ?C0017
                     994     ;       {
                     995                             ; SOURCE LINE # 160
                     996     ;               destination_update=chfnToCheckVehicleReachedToDestination();
                     997                             ; SOURCE LINE # 161
01A3 120000   F      998             LCALL   chfnToCheckVehicleReachedToDestination
01A6 900000   F      999             MOV     DPTR,#destination_update
01A9 EF             1000             MOV     A,R7
01AA F0             1001             MOVX    @DPTR,A
                    1002     ;               fnVehicleOnTheWay();    
                    1003                             ; SOURCE LINE # 162
01AB 120000   F     1004             LCALL   fnVehicleOnTheWay
                    1005     ;               delay_in_seconds(2);
                    1006                             ; SOURCE LINE # 163
01AE 7F02           1007             MOV     R7,#02H
01B0 120000   F     1008             LCALL   _delay_in_seconds
                    1009     ;       }
                    1010                             ; SOURCE LINE # 164
01B3 80E5           1011             SJMP    ?C0016
01B5                1012     ?C0017:
                    1013     ;       
                    1014     ;       if(EM_lock_pin!=0) // To detect any temper cause to cargo
                    1015                             ; SOURCE LINE # 166
01B5 308303         1016             JNB     EM_lock_pin,?C0018
                    1017     ;       {
                    1018                             ; SOURCE LINE # 167
                    1019     ;               fnCargoTampered();   
                    1020                             ; SOURCE LINE # 168
01B8 120000   F     1021             LCALL   fnCargoTampered
                    1022     ;       }       
                    1023                             ; SOURCE LINE # 169
01BB                1024     ?C0018:
                    1025     ;        
                    1026     ;                       
                    1027     ;       
                    1028     ;       if(destination_update==REACHED_TO_DESTINATION)
                    1029                             ; SOURCE LINE # 173
01BB 900000   F     1030             MOV     DPTR,#destination_update
01BE E0             1031             MOVX    A,@DPTR
01BF 6401           1032             XRL     A,#01H
01C1 6003           1033             JZ      $ + 5H
01C3 020000   F     1034             LJMP    ?C0011
A51 MACRO ASSEMBLER  PROJECTMAIN                                                          11/09/2012 17:30:11 PAGE    21

                    1035     ;       {       
                    1036                             ; SOURCE LINE # 174
                    1037     ;               unsigned char uchserialdata;
                    1038     ;               fnModuleSelect(SELECT_PC_ON_UART);              
                    1039                             ; SOURCE LINE # 176
01C6 7F03           1040             MOV     R7,#03H
01C8 120000   F     1041             LCALL   _fnModuleSelect
                    1042     ;               delay_in_seconds(1);
                    1043                             ; SOURCE LINE # 177
01CB 7F01           1044             MOV     R7,#01H
01CD 120000   F     1045             LCALL   _delay_in_seconds
                    1046     ;               printf("\nDestination Reached");
                    1047                             ; SOURCE LINE # 178
01D0 7BFF           1048             MOV     R3,#0FFH
01D2 7A00     F     1049             MOV     R2,#HIGH (?SC_314)
01D4 7900     F     1050             MOV     R1,#LOW (?SC_314)
01D6 120000   F     1051             LCALL   _printf
                    1052     ;               fnInitialisationAtDestination();
                    1053                             ; SOURCE LINE # 179
01D9 120000   F     1054             LCALL   fnInitialisationAtDestination
                    1055     ;               fnModuleSelect(SELECT_GSM_ON_UART);
                    1056                             ; SOURCE LINE # 180
01DC 7F01           1057             MOV     R7,#01H
01DE 120000   F     1058             LCALL   _fnModuleSelect
                    1059     ;               fnDeleteAllMessages();
                    1060                             ; SOURCE LINE # 181
01E1 120000   F     1061             LCALL   fnDeleteAllMessages
                    1062     ;               uchMsgStatus=uchfnCheckInboxStatus();
                    1063                             ; SOURCE LINE # 182
01E4 120000   F     1064             LCALL   uchfnCheckInboxStatus
01E7 900000   F     1065             MOV     DPTR,#uchMsgStatus
01EA EF             1066             MOV     A,R7
01EB F0             1067             MOVX    @DPTR,A
                    1068     ;               fn_lcd_select_line_and_location(LCD_LINE_1,LOCATION_0);
                    1069                             ; SOURCE LINE # 183
01EC E4             1070             CLR     A
01ED FD             1071             MOV     R5,A
01EE 7F01           1072             MOV     R7,#01H
01F0 120000   F     1073             LCALL   _fn_lcd_select_line_and_location
                    1074     ;               fn_Display_String_LCD("WAITING FOR MSG ");
                    1075                             ; SOURCE LINE # 184
01F3 7BFF           1076             MOV     R3,#0FFH
01F5 7A00     F     1077             MOV     R2,#HIGH (?SC_335)
01F7 7900     F     1078             MOV     R1,#LOW (?SC_335)
01F9 120000   F     1079             LCALL   _fn_Display_String_LCD
                    1080     ;               fn_lcd_select_line_and_location(LCD_LINE_2,LOCATION_0);
                    1081                             ; SOURCE LINE # 185
01FC E4             1082             CLR     A
01FD FD             1083             MOV     R5,A
01FE 7F02           1084             MOV     R7,#02H
0200 120000   F     1085             LCALL   _fn_lcd_select_line_and_location
                    1086     ;               fn_Display_String_LCD("  FROM SOURCE   ");
                    1087                             ; SOURCE LINE # 186
0203 7BFF           1088             MOV     R3,#0FFH
0205 7A00     F     1089             MOV     R2,#HIGH (?SC_352)
0207 7900     F     1090             MOV     R1,#LOW (?SC_352)
0209 120000   F     1091             LCALL   _fn_Display_String_LCD
020C                1092     ?C0020:
                    1093     ; 
                    1094     ;               while(uchMsgStatus!=NEWMESSAGE)
                    1095                             ; SOURCE LINE # 188
020C 900000   F     1096             MOV     DPTR,#uchMsgStatus
020F E0             1097             MOVX    A,@DPTR
0210 6026           1098             JZ      ?C0021
                    1099     ;               {
                    1100                             ; SOURCE LINE # 189
A51 MACRO ASSEMBLER  PROJECTMAIN                                                          11/09/2012 17:30:11 PAGE    22

                    1101     ;                       fnModuleSelect(SELECT_GSM_ON_UART);
                    1102                             ; SOURCE LINE # 190
0212 7F01           1103             MOV     R7,#01H
0214 120000   F     1104             LCALL   _fnModuleSelect
                    1105     ;                       delay_in_seconds(1);
                    1106                             ; SOURCE LINE # 191
0217 120000   F     1107             LCALL   _delay_in_seconds
                    1108     ;                       uchMsgStatus=uchfnCheckInboxStatus();   
                    1109                             ; SOURCE LINE # 192
021A 120000   F     1110             LCALL   uchfnCheckInboxStatus
021D 900000   F     1111             MOV     DPTR,#uchMsgStatus
                    1112     ;                       fnModuleSelect(SELECT_PC_ON_UART);              
                    1113                             ; SOURCE LINE # 193
0220 120000   F     1114             LCALL   L?0054
                    1115     ;                       delay_in_seconds(1);
                    1116                             ; SOURCE LINE # 194
0223 7F01           1117             MOV     R7,#01H
0225 120000   F     1118             LCALL   _delay_in_seconds
                    1119     ;                       
                    1120     ;                       printf("\nWaiting for Authorising Message from Base Station");
                    1121                             ; SOURCE LINE # 196
0228 7BFF           1122             MOV     R3,#0FFH
022A 7A00     F     1123             MOV     R2,#HIGH (?SC_369)
022C 7900     F     1124             MOV     R1,#LOW (?SC_369)
022E 120000   F     1125             LCALL   _printf
                    1126     ;                       delay_in_seconds(1);
                    1127                             ; SOURCE LINE # 197
0231 7F01           1128             MOV     R7,#01H
0233 120000   F     1129             LCALL   _delay_in_seconds
                    1130     ;               }
                    1131                             ; SOURCE LINE # 198
0236 80D4           1132             SJMP    ?C0020
0238                1133     ?C0021:
                    1134     ;               fnModuleSelect(SELECT_PC_ON_UART);
                    1135                             ; SOURCE LINE # 199
0238 7F03           1136             MOV     R7,#03H
023A 120000   F     1137             LCALL   _fnModuleSelect
                    1138     ;               printf("\nAuthorising Message RECIEVED");
                    1139                             ; SOURCE LINE # 200
023D 7BFF           1140             MOV     R3,#0FFH
023F 7A00     F     1141             MOV     R2,#HIGH (?SC_420)
0241 7900     F     1142             MOV     R1,#LOW (?SC_420)
0243 120000   F     1143             LCALL   _printf
                    1144     ;               RI=0;
                    1145                             ; SOURCE LINE # 201
0246 C298           1146             CLR     RI
                    1147     ;               RI=0;
                    1148                             ; SOURCE LINE # 202
0248 C298           1149             CLR     RI
                    1150     ;               fn_lcd_select_line_and_location(LCD_LINE_1,LOCATION_0);
                    1151                             ; SOURCE LINE # 203
024A E4             1152             CLR     A
024B FD             1153             MOV     R5,A
024C 7F01           1154             MOV     R7,#01H
024E 120000   F     1155             LCALL   _fn_lcd_select_line_and_location
                    1156     ;               fn_Display_String_LCD(" SWIPE RFID CARD ");
                    1157                             ; SOURCE LINE # 204
0251 7BFF           1158             MOV     R3,#0FFH
0253 7A00     F     1159             MOV     R2,#HIGH (?SC_450)
0255 7900     F     1160             MOV     R1,#LOW (?SC_450)
0257 120000   F     1161             LCALL   _fn_Display_String_LCD
                    1162     ;               fn_lcd_select_line_and_location(LCD_LINE_2,LOCATION_0);
                    1163                             ; SOURCE LINE # 205
025A E4             1164             CLR     A
025B FD             1165             MOV     R5,A
025C 7F02           1166             MOV     R7,#02H
A51 MACRO ASSEMBLER  PROJECTMAIN                                                          11/09/2012 17:30:11 PAGE    23

025E 120000   F     1167             LCALL   _fn_lcd_select_line_and_location
                    1168     ;               fn_Display_String_LCD("                 ");
                    1169                             ; SOURCE LINE # 206
0261 7BFF           1170             MOV     R3,#0FFH
0263 7A00     F     1171             MOV     R2,#HIGH (?SC_218)
0265 7900     F     1172             MOV     R1,#LOW (?SC_218)
0267 120000   F     1173             LCALL   _fn_Display_String_LCD
                    1174     ;               delay_in_seconds(1);
                    1175                             ; SOURCE LINE # 207
026A 7F01           1176             MOV     R7,#01H
026C 120000   F     1177             LCALL   _delay_in_seconds
                    1178     ; 
                    1179     ;               fnModuleSelect(SELECT_RFID_ON_UART);
                    1180                             ; SOURCE LINE # 209
026F E4             1181             CLR     A
0270 FF             1182             MOV     R7,A
0271 120000   F     1183             LCALL   _fnModuleSelect
0274                1184     ?C0022:
                    1185     ;               while((fn_Receive_Serial())!=0x03);
                    1186                             ; SOURCE LINE # 210
0274 120000   F     1187             LCALL   fn_Receive_Serial
0277 BF03FA         1188             CJNE    R7,#03H,?C0022
027A                1189     ?C0023:
                    1190     ;               rfid_count=0;
                    1191                             ; SOURCE LINE # 211
027A E4             1192             CLR     A
027B 900000   F     1193             MOV     DPTR,#rfid_count
027E F0             1194             MOVX    @DPTR,A
027F                1195     ?C0024:
                    1196     ;               
                    1197     ;               while(uchserialdata!=0x0a)                                                 
                                                           
                    1198                             ; SOURCE LINE # 213
027F 900000   F     1199             MOV     DPTR,#uchserialdata?141
0282 E0             1200             MOVX    A,@DPTR
0283 640A           1201             XRL     A,#0AH
0285 601F           1202             JZ      ?C0025
                    1203     ;               {
                    1204                             ; SOURCE LINE # 214
                    1205     ;                       uchserialdata=fn_Receive_Serial();                                 
                                                     
                    1206                             ; SOURCE LINE # 215
0287 120000   F     1207             LCALL   fn_Receive_Serial
028A 900000   F     1208             MOV     DPTR,#uchserialdata?141
028D EF             1209             MOV     A,R7
028E F0             1210             MOVX    @DPTR,A
                    1211     ;                       rfid_card_no[rfid_count]=uchserialdata;
                    1212                             ; SOURCE LINE # 216
028F 900000   F     1213             MOV     DPTR,#rfid_count
0292 E0             1214             MOVX    A,@DPTR
0293 2400     F     1215             ADD     A,#LOW (rfid_card_no)
0295 F582           1216             MOV     DPL,A
0297 E4             1217             CLR     A
0298 3400     F     1218             ADDC    A,#HIGH (rfid_card_no)
029A F583           1219             MOV     DPH,A
029C EF             1220             MOV     A,R7
029D F0             1221             MOVX    @DPTR,A
                    1222     ;                       rfid_count++ ;
                    1223                             ; SOURCE LINE # 217
029E 900000   F     1224             MOV     DPTR,#rfid_count
02A1 E0             1225             MOVX    A,@DPTR
02A2 04             1226             INC     A
02A3 F0             1227             MOVX    @DPTR,A
                    1228     ;               }
                    1229                             ; SOURCE LINE # 218
02A4 80D9           1230             SJMP    ?C0024
A51 MACRO ASSEMBLER  PROJECTMAIN                                                          11/09/2012 17:30:11 PAGE    24

02A6                1231     ?C0025:
                    1232     ;               rfid_card_no[rfid_count-2]='\0';
                    1233                             ; SOURCE LINE # 219
02A6 900000   F     1234             MOV     DPTR,#rfid_count
02A9 E0             1235             MOVX    A,@DPTR
02AA 2400     F     1236             ADD     A,#LOW (rfid_card_no+0FFFEH)
02AC F582           1237             MOV     DPL,A
02AE E4             1238             CLR     A
02AF 3400     F     1239             ADDC    A,#HIGH (rfid_card_no+0FFFEH)
02B1 F583           1240             MOV     DPH,A
02B3 E4             1241             CLR     A
02B4 F0             1242             MOVX    @DPTR,A
                    1243     ;               fnModuleSelect(SELECT_PC_ON_UART);
                    1244                             ; SOURCE LINE # 220
02B5 7F03           1245             MOV     R7,#03H
02B7 120000   F     1246             LCALL   _fnModuleSelect
                    1247     ;               printf("rfid card no is = %s",rfid_card_no);
                    1248                             ; SOURCE LINE # 221
02BA 900000   F     1249             MOV     DPTR,#?_printf?BYTE+03H
02BD 7401           1250             MOV     A,#01H
02BF F0             1251             MOVX    @DPTR,A
02C0 A3             1252             INC     DPTR
02C1 7400     F     1253             MOV     A,#HIGH (rfid_card_no)
02C3 F0             1254             MOVX    @DPTR,A
02C4 A3             1255             INC     DPTR
02C5 7400     F     1256             MOV     A,#LOW (rfid_card_no)
02C7 F0             1257             MOVX    @DPTR,A
02C8 7BFF           1258             MOV     R3,#0FFH
02CA 7A00     F     1259             MOV     R2,#HIGH (?SC_468)
02CC 7900     F     1260             MOV     R1,#LOW (?SC_468)
02CE 120000   F     1261             LCALL   _printf
                    1262     ;               RI=0;
                    1263                             ; SOURCE LINE # 222
02D1 C298           1264             CLR     RI
                    1265     ;               RI=0;
                    1266                             ; SOURCE LINE # 223
02D3 C298           1267             CLR     RI
                    1268     ;               
                    1269     ;               fnExtractPhoneNoAndMessage();
                    1270                             ; SOURCE LINE # 225
02D5 120000   F     1271             LCALL   fnExtractPhoneNoAndMessage
                    1272     ;               if(strstr( guchmessagepacket,rfid_card_no)) // RFID card detection
                    1273                             ; SOURCE LINE # 226
02D8 900000   F     1274             MOV     DPTR,#?_strstr?BYTE+03H
02DB 7401           1275             MOV     A,#01H
02DD F0             1276             MOVX    @DPTR,A
02DE A3             1277             INC     DPTR
02DF 7400     F     1278             MOV     A,#HIGH (rfid_card_no)
02E1 F0             1279             MOVX    @DPTR,A
02E2 A3             1280             INC     DPTR
02E3 7400     F     1281             MOV     A,#LOW (rfid_card_no)
02E5 F0             1282             MOVX    @DPTR,A
02E6 7B01           1283             MOV     R3,#01H
02E8 7A00     F     1284             MOV     R2,#HIGH (guchmessagepacket)
02EA 7900     F     1285             MOV     R1,#LOW (guchmessagepacket)
02EC 120000   F     1286             LCALL   _strstr
02EF EA             1287             MOV     A,R2
02F0 49             1288             ORL     A,R1
02F1 4B             1289             ORL     A,R3
02F2 6054           1290             JZ      ?C0026
                    1291     ;               {
                    1292                             ; SOURCE LINE # 227
                    1293     ;                       fnModuleSelect(SELECT_PC_ON_UART);
                    1294                             ; SOURCE LINE # 228
02F4 7F03           1295             MOV     R7,#03H
02F6 120000   F     1296             LCALL   _fnModuleSelect
A51 MACRO ASSEMBLER  PROJECTMAIN                                                          11/09/2012 17:30:11 PAGE    25

                    1297     ;                       printf("rfid card no is matched ");
                    1298                             ; SOURCE LINE # 229
02F9 7BFF           1299             MOV     R3,#0FFH
02FB 7A00     F     1300             MOV     R2,#HIGH (?SC_489)
02FD 7900     F     1301             MOV     R1,#LOW (?SC_489)
02FF 120000   F     1302             LCALL   _printf
                    1303     ;                       delay_in_seconds(2);
                    1304                             ; SOURCE LINE # 230
0302 7F02           1305             MOV     R7,#02H
0304 120000   F     1306             LCALL   _delay_in_seconds
                    1307     ;                       fn_keyboard_12x1for_password(PASSWORDLENGTH);
                    1308                             ; SOURCE LINE # 231
0307 7F05           1309             MOV     R7,#05H
0309 120000   F     1310             LCALL   _fn_keyboard_12x1for_password
                    1311     ;                       printf("key pressed = %s",key_pressed);
                    1312                             ; SOURCE LINE # 232
030C 900000   F     1313             MOV     DPTR,#?_printf?BYTE+03H
030F 7401           1314             MOV     A,#01H
0311 F0             1315             MOVX    @DPTR,A
0312 A3             1316             INC     DPTR
0313 7400     F     1317             MOV     A,#HIGH (key_pressed)
0315 F0             1318             MOVX    @DPTR,A
0316 A3             1319             INC     DPTR
0317 7400     F     1320             MOV     A,#LOW (key_pressed)
0319 F0             1321             MOVX    @DPTR,A
031A 7BFF           1322             MOV     R3,#0FFH
031C 7A00     F     1323             MOV     R2,#HIGH (?SC_514)
031E 7900     F     1324             MOV     R1,#LOW (?SC_514)
0320 120000   F     1325             LCALL   _printf
                    1326     ;                       if(strstr( guchmessagepacket,key_pressed))   // password detection
                    1327                             ; SOURCE LINE # 233
0323 900000   F     1328             MOV     DPTR,#?_strstr?BYTE+03H
0326 7401           1329             MOV     A,#01H
0328 F0             1330             MOVX    @DPTR,A
0329 A3             1331             INC     DPTR
032A 7400     F     1332             MOV     A,#HIGH (key_pressed)
032C F0             1333             MOVX    @DPTR,A
032D A3             1334             INC     DPTR
032E 7400     F     1335             MOV     A,#LOW (key_pressed)
0330 F0             1336             MOVX    @DPTR,A
0331 7B01           1337             MOV     R3,#01H
0333 7A00     F     1338             MOV     R2,#HIGH (guchmessagepacket)
0335 7900     F     1339             MOV     R1,#LOW (guchmessagepacket)
0337 120000   F     1340             LCALL   _strstr
033A EA             1341             MOV     A,R2
033B 49             1342             ORL     A,R1
033C 4B             1343             ORL     A,R3
033D 6009           1344             JZ      ?C0051
                    1345     ;                       {
                    1346                             ; SOURCE LINE # 234
                    1347     ;                               EM_lock_pin=LOCKDISABLE ;
                    1348                             ; SOURCE LINE # 235
033F D283           1349             SETB    EM_lock_pin
                    1350     ;                               Buzzer_pin=BUZZERDISABLE;
                    1351                             ; SOURCE LINE # 236
0341 C280           1352             CLR     Buzzer_pin
                    1353     ;                               fnToSendAlertMSGFromDestination();                         
                                  
                    1354                             ; SOURCE LINE # 237
0343 120000   F     1355             LCALL   fnToSendAlertMSGFromDestination
                    1356     ;                       }
                    1357                             ; SOURCE LINE # 238
0346 8003           1358             SJMP    ?C0029
0348                1359     ?C0026:
                    1360     ;                       else
                    1361     ;                       {
A51 MACRO ASSEMBLER  PROJECTMAIN                                                          11/09/2012 17:30:11 PAGE    26

                    1362     ;                               fnInvalidAuthorisationAtDestination();  
                    1363     ;                       }
                    1364     ;            }
                    1365     ;           else
                    1366     ;               {
                    1367                             ; SOURCE LINE # 245
                    1368     ;                       fnInvalidAuthorisationAtDestination();
                    1369                             ; SOURCE LINE # 246
0348                1370     ?C0051:
0348 120000   F     1371             LCALL   fnInvalidAuthorisationAtDestination
                    1372     ;           }
                    1373                             ; SOURCE LINE # 247
034B                1374     ?C0029:
                    1375     ; 
                    1376     ;               RI=0;
                    1377                             ; SOURCE LINE # 249
034B C298           1378             CLR     RI
                    1379     ;               RI=0;
                    1380                             ; SOURCE LINE # 250
034D C298           1381             CLR     RI
                    1382     ;                       
                    1383     ;       }
                    1384                             ; SOURCE LINE # 252
                    1385     ;       
                    1386     ;   }
                    1387                             ; SOURCE LINE # 254
034F 020000   F     1388             LJMP    ?C0011
                    1389     ; END OF fnProjectMain
                    1390     
                    1391     ; 
                    1392     ; }
                    1393     ;               
                    1394     ; 
                    1395     ; 
                    1396     ; 
                    1397     ; void fnVehicleOnTheWay(void)
                    1398     
----                1399             RSEG  ?PR?fnVehicleOnTheWay?PROJECTMAIN
0000                1400     fnVehicleOnTheWay:
                    1401             USING   0
                    1402                             ; SOURCE LINE # 261
                    1403     ; {
                    1404                             ; SOURCE LINE # 262
                    1405     ;       strcpy(uchBuff, "cargo is on the way");
                    1406                             ; SOURCE LINE # 263
0000 7800     F     1407             MOV     R0,#LOW (uchBuff)
0002 7C00     F     1408             MOV     R4,#HIGH (uchBuff)
0004 7D01           1409             MOV     R5,#01H
0006 7BFF           1410             MOV     R3,#0FFH
0008 7A00     F     1411             MOV     R2,#HIGH (?SC_531)
000A 7900     F     1412             MOV     R1,#LOW (?SC_531)
000C 120000   F     1413             LCALL   ?C?STRCPY
                    1414     ;               if(EM_lock_pin!=0)
                    1415                             ; SOURCE LINE # 264
000F 308303         1416             JNB     EM_lock_pin,?C0031
                    1417     ;       {
                    1418                             ; SOURCE LINE # 265
                    1419     ;               fnCargoTampered();
                    1420                             ; SOURCE LINE # 266
0012 120000   F     1421             LCALL   fnCargoTampered
                    1422     ;       }
                    1423                             ; SOURCE LINE # 267
0015                1424     ?C0031:
                    1425     ;       
                    1426     ;       fn_lcd_select_line_and_location(LCD_LINE_1,LOCATION_0);
                    1427                             ; SOURCE LINE # 269
A51 MACRO ASSEMBLER  PROJECTMAIN                                                          11/09/2012 17:30:11 PAGE    27

0015 E4             1428             CLR     A
0016 FD             1429             MOV     R5,A
0017 7F01           1430             MOV     R7,#01H
0019 120000   F     1431             LCALL   _fn_lcd_select_line_and_location
                    1432     ;       fn_Display_String_LCD("CARGO IsOnWAY TO");
                    1433                             ; SOURCE LINE # 270
001C 7BFF           1434             MOV     R3,#0FFH
001E 7A00     F     1435             MOV     R2,#HIGH (?SC_551)
0020 7900     F     1436             MOV     R1,#LOW (?SC_551)
0022 120000   F     1437             LCALL   _fn_Display_String_LCD
                    1438     ;       fnToCheckInboxStatusAndDecryptCommandsIfAnySMS();
                    1439                             ; SOURCE LINE # 271
0025 020000   F     1440             LJMP    fnToCheckInboxStatusAndDecryptCommandsIfAnySMS
                    1441     ; END OF fnVehicleOnTheWay
                    1442     
                    1443     ;       
                    1444     ; 
                    1445     ; }             
                    1446     ; 
                    1447     ; 
                    1448     ; unsigned char chfnToCheckVehicleReachedToDestination(void)
                    1449     
----                1450             RSEG  ?PR?chfnToCheckVehicleReachedToDestination?PROJECTMAIN
0000                1451     chfnToCheckVehicleReachedToDestination:
                    1452             USING   0
                    1453                             ; SOURCE LINE # 277
                    1454     ; {
                    1455                             ; SOURCE LINE # 278
                    1456     ; 
                    1457     ;       if (EM_lock_enabe_button==0)
                    1458                             ; SOURCE LINE # 280
0000 208203         1459             JB      EM_lock_enabe_button,?C0033
                    1460     ;       {
                    1461                             ; SOURCE LINE # 281
                    1462     ;               return (REACHED_TO_DESTINATION);
                    1463                             ; SOURCE LINE # 282
0003 7F01           1464             MOV     R7,#01H
0005 22             1465             RET     
                    1466     ;       }
                    1467                             ; SOURCE LINE # 283
0006                1468     ?C0033:
                    1469     ; 
                    1470     ;       else
                    1471     ;       return (NOT_A_DESTINATION);
                    1472                             ; SOURCE LINE # 286
0006 7F00           1473             MOV     R7,#00H
                    1474     ; 
                    1475     ; }
                    1476                             ; SOURCE LINE # 288
0008                1477     ?C0034:
0008 22             1478             RET     
                    1479     ; END OF chfnToCheckVehicleReachedToDestination
                    1480     
                    1481     ; 
                    1482     ; 
                    1483     ; void fnToSendAlertMSGFromDestination(void)
                    1484     
----                1485             RSEG  ?PR?fnToSendAlertMSGFromDestination?PROJECTMAIN
0000                1486     fnToSendAlertMSGFromDestination:
                    1487             USING   0
                    1488                             ; SOURCE LINE # 291
                    1489     ; {
                    1490                             ; SOURCE LINE # 292
                    1491     ;       fn_lcd_select_line_and_location(LCD_LINE_1,LOCATION_0);
                    1492                             ; SOURCE LINE # 293
0000 E4             1493             CLR     A
A51 MACRO ASSEMBLER  PROJECTMAIN                                                          11/09/2012 17:30:11 PAGE    28

0001 FD             1494             MOV     R5,A
0002 7F01           1495             MOV     R7,#01H
0004 120000   F     1496             LCALL   _fn_lcd_select_line_and_location
                    1497     ;       fn_Display_String_LCD("PASSWORD MATCHED");
                    1498                             ; SOURCE LINE # 294
0007 7BFF           1499             MOV     R3,#0FFH
0009 7A00     F     1500             MOV     R2,#HIGH (?SC_568)
000B 7900     F     1501             MOV     R1,#LOW (?SC_568)
000D 120000   F     1502             LCALL   _fn_Display_String_LCD
                    1503     ;       fn_lcd_select_line_and_location(LCD_LINE_2,LOCATION_0);
                    1504                             ; SOURCE LINE # 295
0010 E4             1505             CLR     A
0011 FD             1506             MOV     R5,A
0012 7F02           1507             MOV     R7,#02H
0014 120000   F     1508             LCALL   _fn_lcd_select_line_and_location
                    1509     ;       fn_Display_String_LCD("                 ");
                    1510                             ; SOURCE LINE # 296
0017 7BFF           1511             MOV     R3,#0FFH
0019 7A00     F     1512             MOV     R2,#HIGH (?SC_218)
001B 7900     F     1513             MOV     R1,#LOW (?SC_218)
001D 120000   F     1514             LCALL   _fn_Display_String_LCD
                    1515     ;       delay_in_seconds(5);
                    1516                             ; SOURCE LINE # 297
0020 7F05           1517             MOV     R7,#05H
0022 120000   F     1518             LCALL   _delay_in_seconds
                    1519     ;       fnModuleSelect(SELECT_GSM_ON_UART);
                    1520                             ; SOURCE LINE # 298
0025 7F01           1521             MOV     R7,#01H
0027 120000   F     1522             LCALL   _fnModuleSelect
                    1523     ; 
                    1524     ;       strcpy(guchGSMPhoneNumber,PHONE_NUMBERFOR_VB);
                    1525                             ; SOURCE LINE # 300
002A 7800     F     1526             MOV     R0,#LOW (guchGSMPhoneNumber)
002C 7C00     F     1527             MOV     R4,#HIGH (guchGSMPhoneNumber)
002E 7D01           1528             MOV     R5,#01H
0030 7BFF           1529             MOV     R3,#0FFH
0032 7A00     F     1530             MOV     R2,#HIGH (PHONE_NUMBERFOR_VB)
0034 7900     F     1531             MOV     R1,#LOW (PHONE_NUMBERFOR_VB)
0036 120000   F     1532             LCALL   ?C?STRCPY
                    1533     ;     strcpy(guchCompleteGSMDataPacket,"CAUTION: YOUR VEHICLE no 111 \n ");
                    1534                             ; SOURCE LINE # 301
0039 7800     F     1535             MOV     R0,#LOW (guchCompleteGSMDataPacket)
003B 7C00     F     1536             MOV     R4,#HIGH (guchCompleteGSMDataPacket)
003D 7D01           1537             MOV     R5,#01H
003F 7BFF           1538             MOV     R3,#0FFH
0041 7A00     F     1539             MOV     R2,#HIGH (?SC_585)
0043 7900     F     1540             MOV     R1,#LOW (?SC_585)
0045 120000   F     1541             LCALL   ?C?STRCPY
                    1542     ;       strcat(guchCompleteGSMDataPacket, "LOCK IS OPENED SUCCESSFULLY AT DESTINATION ");
                    1543                             ; SOURCE LINE # 302
0048 900000   F     1544             MOV     DPTR,#?_strcat?BYTE+03H
004B 74FF           1545             MOV     A,#0FFH
004D F0             1546             MOVX    @DPTR,A
004E A3             1547             INC     DPTR
004F 7400     F     1548             MOV     A,#HIGH (?SC_617)
0051 F0             1549             MOVX    @DPTR,A
0052 A3             1550             INC     DPTR
0053 7400     F     1551             MOV     A,#LOW (?SC_617)
0055 F0             1552             MOVX    @DPTR,A
0056 7B01           1553             MOV     R3,#01H
0058 7A00     F     1554             MOV     R2,#HIGH (guchCompleteGSMDataPacket)
005A 7900     F     1555             MOV     R1,#LOW (guchCompleteGSMDataPacket)
005C 120000   F     1556             LCALL   _strcat
                    1557     ;     strcat(guchCompleteGSMDataPacket, " ITS CORDINATES ARE @");
                    1558                             ; SOURCE LINE # 303
005F 900000   F     1559             MOV     DPTR,#?_strcat?BYTE+03H
A51 MACRO ASSEMBLER  PROJECTMAIN                                                          11/09/2012 17:30:11 PAGE    29

0062 74FF           1560             MOV     A,#0FFH
0064 F0             1561             MOVX    @DPTR,A
0065 A3             1562             INC     DPTR
0066 7400     F     1563             MOV     A,#HIGH (?SC_661)
0068 F0             1564             MOVX    @DPTR,A
0069 A3             1565             INC     DPTR
006A 7400     F     1566             MOV     A,#LOW (?SC_661)
006C F0             1567             MOVX    @DPTR,A
006D 7B01           1568             MOV     R3,#01H
006F 7A00     F     1569             MOV     R2,#HIGH (guchCompleteGSMDataPacket)
0071 7900     F     1570             MOV     R1,#LOW (guchCompleteGSMDataPacket)
0073 120000   F     1571             LCALL   _strcat
                    1572     ;     strcat(guchCompleteGSMDataPacket, guchLatitude);
                    1573                             ; SOURCE LINE # 304
0076 900000   F     1574             MOV     DPTR,#?_strcat?BYTE+03H
0079 7401           1575             MOV     A,#01H
007B F0             1576             MOVX    @DPTR,A
007C A3             1577             INC     DPTR
007D 7400     F     1578             MOV     A,#HIGH (guchLatitude)
007F F0             1579             MOVX    @DPTR,A
0080 A3             1580             INC     DPTR
0081 7400     F     1581             MOV     A,#LOW (guchLatitude)
0083 F0             1582             MOVX    @DPTR,A
0084 7B01           1583             MOV     R3,#01H
0086 7A00     F     1584             MOV     R2,#HIGH (guchCompleteGSMDataPacket)
0088 7900     F     1585             MOV     R1,#LOW (guchCompleteGSMDataPacket)
008A 120000   F     1586             LCALL   _strcat
                    1587     ;     strcat(guchCompleteGSMDataPacket,"N ");
                    1588                             ; SOURCE LINE # 305
008D 900000   F     1589             MOV     DPTR,#?_strcat?BYTE+03H
0090 74FF           1590             MOV     A,#0FFH
0092 F0             1591             MOVX    @DPTR,A
0093 A3             1592             INC     DPTR
0094 7400     F     1593             MOV     A,#HIGH (?SC_683)
0096 F0             1594             MOVX    @DPTR,A
0097 A3             1595             INC     DPTR
0098 7400     F     1596             MOV     A,#LOW (?SC_683)
009A F0             1597             MOVX    @DPTR,A
009B 7B01           1598             MOV     R3,#01H
009D 7A00     F     1599             MOV     R2,#HIGH (guchCompleteGSMDataPacket)
009F 7900     F     1600             MOV     R1,#LOW (guchCompleteGSMDataPacket)
00A1 120000   F     1601             LCALL   _strcat
                    1602     ;     strcat(guchCompleteGSMDataPacket, guchLongitude);
                    1603                             ; SOURCE LINE # 306
00A4 900000   F     1604             MOV     DPTR,#?_strcat?BYTE+03H
00A7 7401           1605             MOV     A,#01H
00A9 F0             1606             MOVX    @DPTR,A
00AA A3             1607             INC     DPTR
00AB 7400     F     1608             MOV     A,#HIGH (guchLongitude)
00AD F0             1609             MOVX    @DPTR,A
00AE A3             1610             INC     DPTR
00AF 7400     F     1611             MOV     A,#LOW (guchLongitude)
00B1 F0             1612             MOVX    @DPTR,A
00B2 7B01           1613             MOV     R3,#01H
00B4 7A00     F     1614             MOV     R2,#HIGH (guchCompleteGSMDataPacket)
00B6 7900     F     1615             MOV     R1,#LOW (guchCompleteGSMDataPacket)
00B8 120000   F     1616             LCALL   _strcat
                    1617     ;     strcat(guchCompleteGSMDataPacket,"E");
                    1618                             ; SOURCE LINE # 307
00BB 900000   F     1619             MOV     DPTR,#?_strcat?BYTE+03H
00BE 74FF           1620             MOV     A,#0FFH
00C0 F0             1621             MOVX    @DPTR,A
00C1 A3             1622             INC     DPTR
00C2 7400     F     1623             MOV     A,#HIGH (?SC_686)
00C4 F0             1624             MOVX    @DPTR,A
00C5 A3             1625             INC     DPTR
A51 MACRO ASSEMBLER  PROJECTMAIN                                                          11/09/2012 17:30:11 PAGE    30

00C6 7400     F     1626             MOV     A,#LOW (?SC_686)
00C8 F0             1627             MOVX    @DPTR,A
00C9 7B01           1628             MOV     R3,#01H
00CB 7A00     F     1629             MOV     R2,#HIGH (guchCompleteGSMDataPacket)
00CD 7900     F     1630             MOV     R1,#LOW (guchCompleteGSMDataPacket)
00CF 120000   F     1631             LCALL   _strcat
                    1632     ;     fnGSMSendMessage(guchGSMPhoneNumber,guchCompleteGSMDataPacket);
                    1633                             ; SOURCE LINE # 308
00D2 900000   F     1634             MOV     DPTR,#?_fnGSMSendMessage?BYTE+03H
00D5 7401           1635             MOV     A,#01H
00D7 F0             1636             MOVX    @DPTR,A
00D8 A3             1637             INC     DPTR
00D9 7400     F     1638             MOV     A,#HIGH (guchCompleteGSMDataPacket)
00DB F0             1639             MOVX    @DPTR,A
00DC A3             1640             INC     DPTR
00DD 7400     F     1641             MOV     A,#LOW (guchCompleteGSMDataPacket)
00DF F0             1642             MOVX    @DPTR,A
00E0 7B01           1643             MOV     R3,#01H
00E2 7A00     F     1644             MOV     R2,#HIGH (guchGSMPhoneNumber)
00E4 7900     F     1645             MOV     R1,#LOW (guchGSMPhoneNumber)
00E6 120000   F     1646             LCALL   _fnGSMSendMessage
                    1647     ;       
                    1648     ;       fnModuleSelect(SELECT_GSM_ON_UART);
                    1649                             ; SOURCE LINE # 310
00E9 7F01           1650             MOV     R7,#01H
00EB 120000   F     1651             LCALL   _fnModuleSelect
                    1652     ;       strcpy(guchGSMPhoneNumber,PHONE_NUMBERS[0]);
                    1653                             ; SOURCE LINE # 311
00EE 7800     F     1654             MOV     R0,#LOW (guchGSMPhoneNumber)
00F0 7C00     F     1655             MOV     R4,#HIGH (guchGSMPhoneNumber)
00F2 7D01           1656             MOV     R5,#01H
00F4 7BFF           1657             MOV     R3,#0FFH
00F6 7A00     F     1658             MOV     R2,#HIGH (PHONE_NUMBERS)
00F8 7900     F     1659             MOV     R1,#LOW (PHONE_NUMBERS)
00FA 120000   F     1660             LCALL   ?C?STRCPY
                    1661     ;     strcpy(guchCompleteGSMDataPacket,"CAUTION: YOUR VEHICLE no 111 \n ");
                    1662                             ; SOURCE LINE # 312
00FD 7800     F     1663             MOV     R0,#LOW (guchCompleteGSMDataPacket)
00FF 7C00     F     1664             MOV     R4,#HIGH (guchCompleteGSMDataPacket)
0101 7D01           1665             MOV     R5,#01H
0103 7BFF           1666             MOV     R3,#0FFH
0105 7A00     F     1667             MOV     R2,#HIGH (?SC_585)
0107 7900     F     1668             MOV     R1,#LOW (?SC_585)
0109 120000   F     1669             LCALL   ?C?STRCPY
                    1670     ;       strcat(guchCompleteGSMDataPacket, "LOCK IS OPENED SUCCESSFULLY AT DESTINATION\n");
                    1671                             ; SOURCE LINE # 313
010C 900000   F     1672             MOV     DPTR,#?_strcat?BYTE+03H
010F 74FF           1673             MOV     A,#0FFH
0111 F0             1674             MOVX    @DPTR,A
0112 A3             1675             INC     DPTR
0113 7400     F     1676             MOV     A,#HIGH (?SC_688)
0115 F0             1677             MOVX    @DPTR,A
0116 A3             1678             INC     DPTR
0117 7400     F     1679             MOV     A,#LOW (?SC_688)
0119 F0             1680             MOVX    @DPTR,A
011A 7B01           1681             MOV     R3,#01H
011C 7A00     F     1682             MOV     R2,#HIGH (guchCompleteGSMDataPacket)
011E 7900     F     1683             MOV     R1,#LOW (guchCompleteGSMDataPacket)
0120 120000   F     1684             LCALL   _strcat
                    1685     ;     strcat(guchCompleteGSMDataPacket, " ITS CORDINATES ARE\n ");
                    1686                             ; SOURCE LINE # 314
0123 900000   F     1687             MOV     DPTR,#?_strcat?BYTE+03H
0126 74FF           1688             MOV     A,#0FFH
0128 F0             1689             MOVX    @DPTR,A
0129 A3             1690             INC     DPTR
012A 7400     F     1691             MOV     A,#HIGH (?SC_732)
A51 MACRO ASSEMBLER  PROJECTMAIN                                                          11/09/2012 17:30:11 PAGE    31

012C F0             1692             MOVX    @DPTR,A
012D A3             1693             INC     DPTR
012E 7400     F     1694             MOV     A,#LOW (?SC_732)
0130 F0             1695             MOVX    @DPTR,A
0131 7B01           1696             MOV     R3,#01H
0133 7A00     F     1697             MOV     R2,#HIGH (guchCompleteGSMDataPacket)
0135 7900     F     1698             MOV     R1,#LOW (guchCompleteGSMDataPacket)
0137 120000   F     1699             LCALL   _strcat
                    1700     ;     strcat(guchCompleteGSMDataPacket, guchLatitude);
                    1701                             ; SOURCE LINE # 315
013A 900000   F     1702             MOV     DPTR,#?_strcat?BYTE+03H
013D 7401           1703             MOV     A,#01H
013F F0             1704             MOVX    @DPTR,A
0140 A3             1705             INC     DPTR
0141 7400     F     1706             MOV     A,#HIGH (guchLatitude)
0143 F0             1707             MOVX    @DPTR,A
0144 A3             1708             INC     DPTR
0145 7400     F     1709             MOV     A,#LOW (guchLatitude)
0147 F0             1710             MOVX    @DPTR,A
0148 7B01           1711             MOV     R3,#01H
014A 7A00     F     1712             MOV     R2,#HIGH (guchCompleteGSMDataPacket)
014C 7900     F     1713             MOV     R1,#LOW (guchCompleteGSMDataPacket)
014E 120000   F     1714             LCALL   _strcat
                    1715     ;     strcat(guchCompleteGSMDataPacket,"N\n");
                    1716                             ; SOURCE LINE # 316
0151 900000   F     1717             MOV     DPTR,#?_strcat?BYTE+03H
0154 74FF           1718             MOV     A,#0FFH
0156 F0             1719             MOVX    @DPTR,A
0157 A3             1720             INC     DPTR
0158 7400     F     1721             MOV     A,#HIGH (?SC_754)
015A F0             1722             MOVX    @DPTR,A
015B A3             1723             INC     DPTR
015C 7400     F     1724             MOV     A,#LOW (?SC_754)
015E F0             1725             MOVX    @DPTR,A
015F 7B01           1726             MOV     R3,#01H
0161 7A00     F     1727             MOV     R2,#HIGH (guchCompleteGSMDataPacket)
0163 7900     F     1728             MOV     R1,#LOW (guchCompleteGSMDataPacket)
0165 120000   F     1729             LCALL   _strcat
                    1730     ;     strcat(guchCompleteGSMDataPacket, guchLongitude);
                    1731                             ; SOURCE LINE # 317
0168 900000   F     1732             MOV     DPTR,#?_strcat?BYTE+03H
016B 7401           1733             MOV     A,#01H
016D F0             1734             MOVX    @DPTR,A
016E A3             1735             INC     DPTR
016F 7400     F     1736             MOV     A,#HIGH (guchLongitude)
0171 F0             1737             MOVX    @DPTR,A
0172 A3             1738             INC     DPTR
0173 7400     F     1739             MOV     A,#LOW (guchLongitude)
0175 F0             1740             MOVX    @DPTR,A
0176 7B01           1741             MOV     R3,#01H
0178 7A00     F     1742             MOV     R2,#HIGH (guchCompleteGSMDataPacket)
017A 7900     F     1743             MOV     R1,#LOW (guchCompleteGSMDataPacket)
017C 120000   F     1744             LCALL   _strcat
                    1745     ;     strcat(guchCompleteGSMDataPacket,"E\n");
                    1746                             ; SOURCE LINE # 318
017F 900000   F     1747             MOV     DPTR,#?_strcat?BYTE+03H
0182 74FF           1748             MOV     A,#0FFH
0184 F0             1749             MOVX    @DPTR,A
0185 A3             1750             INC     DPTR
0186 7400     F     1751             MOV     A,#HIGH (?SC_757)
0188 F0             1752             MOVX    @DPTR,A
0189 A3             1753             INC     DPTR
018A 7400     F     1754             MOV     A,#LOW (?SC_757)
018C F0             1755             MOVX    @DPTR,A
018D 7B01           1756             MOV     R3,#01H
018F 7A00     F     1757             MOV     R2,#HIGH (guchCompleteGSMDataPacket)
A51 MACRO ASSEMBLER  PROJECTMAIN                                                          11/09/2012 17:30:11 PAGE    32

0191 7900     F     1758             MOV     R1,#LOW (guchCompleteGSMDataPacket)
0193 120000   F     1759             LCALL   _strcat
                    1760     ;     fnGSMSendMessage(guchGSMPhoneNumber,guchCompleteGSMDataPacket);
                    1761                             ; SOURCE LINE # 319
0196 900000   F     1762             MOV     DPTR,#?_fnGSMSendMessage?BYTE+03H
0199 7401           1763             MOV     A,#01H
019B F0             1764             MOVX    @DPTR,A
019C A3             1765             INC     DPTR
019D 7400     F     1766             MOV     A,#HIGH (guchCompleteGSMDataPacket)
019F F0             1767             MOVX    @DPTR,A
01A0 A3             1768             INC     DPTR
01A1 7400     F     1769             MOV     A,#LOW (guchCompleteGSMDataPacket)
01A3 F0             1770             MOVX    @DPTR,A
01A4 7B01           1771             MOV     R3,#01H
01A6 7A00     F     1772             MOV     R2,#HIGH (guchGSMPhoneNumber)
01A8 7900     F     1773             MOV     R1,#LOW (guchGSMPhoneNumber)
01AA 120000   F     1774             LCALL   _fnGSMSendMessage
                    1775     ;       
                    1776     ;       
                    1777     ;       fnModuleSelect(SELECT_PC_ON_UART);
                    1778                             ; SOURCE LINE # 322
01AD 7F03           1779             MOV     R7,#03H
01AF 120000   F     1780             LCALL   _fnModuleSelect
                    1781     ;       printf("guchCompleteGSMDataPacket = %s\n",guchCompleteGSMDataPacket);
                    1782                             ; SOURCE LINE # 323
01B2 900000   F     1783             MOV     DPTR,#?_printf?BYTE+03H
01B5 7401           1784             MOV     A,#01H
01B7 F0             1785             MOVX    @DPTR,A
01B8 A3             1786             INC     DPTR
01B9 7400     F     1787             MOV     A,#HIGH (guchCompleteGSMDataPacket)
01BB F0             1788             MOVX    @DPTR,A
01BC A3             1789             INC     DPTR
01BD 7400     F     1790             MOV     A,#LOW (guchCompleteGSMDataPacket)
01BF F0             1791             MOVX    @DPTR,A
01C0 7BFF           1792             MOV     R3,#0FFH
01C2 7A00     F     1793             MOV     R2,#HIGH (?SC_134)
01C4 7900     F     1794             MOV     R1,#LOW (?SC_134)
01C6 020000   F     1795             LJMP    _printf
                    1796     ; END OF fnToSendAlertMSGFromDestination
                    1797     
                    1798     ;       
                    1799     ; }
                    1800     ; 
                    1801     ; 
                    1802     ; 
                    1803     ; void fnInvalidAuthorisationAtDestination(void)
                    1804     
----                1805             RSEG  ?PR?fnInvalidAuthorisationAtDestination?PROJECTMAIN
0000                1806     fnInvalidAuthorisationAtDestination:
                    1807             USING   0
                    1808                             ; SOURCE LINE # 329
                    1809     ; {
                    1810                             ; SOURCE LINE # 330
                    1811     ;       Buzzer_pin=BUZZERENABLED;
                    1812                             ; SOURCE LINE # 331
0000 D280           1813             SETB    Buzzer_pin
                    1814     ;       fn_lcd_select_line_and_location(LCD_LINE_1,LOCATION_0);
                    1815                             ; SOURCE LINE # 332
0002 E4             1816             CLR     A
0003 FD             1817             MOV     R5,A
0004 7F01           1818             MOV     R7,#01H
0006 120000   F     1819             LCALL   _fn_lcd_select_line_and_location
                    1820     ;       fn_Display_String_LCD(" ACCESS DENIED ");
                    1821                             ; SOURCE LINE # 333
0009 7BFF           1822             MOV     R3,#0FFH
000B 7A00     F     1823             MOV     R2,#HIGH (?SC_760)
A51 MACRO ASSEMBLER  PROJECTMAIN                                                          11/09/2012 17:30:11 PAGE    33

000D 7900     F     1824             MOV     R1,#LOW (?SC_760)
000F 120000   F     1825             LCALL   _fn_Display_String_LCD
                    1826     ;       fn_lcd_select_line_and_location(LCD_LINE_2,LOCATION_0);
                    1827                             ; SOURCE LINE # 334
0012 E4             1828             CLR     A
0013 FD             1829             MOV     R5,A
0014 7F02           1830             MOV     R7,#02H
0016 120000   F     1831             LCALL   _fn_lcd_select_line_and_location
                    1832     ;       fn_Display_String_LCD("                 ");
                    1833                             ; SOURCE LINE # 335
0019 7BFF           1834             MOV     R3,#0FFH
001B 7A00     F     1835             MOV     R2,#HIGH (?SC_218)
001D 7900     F     1836             MOV     R1,#LOW (?SC_218)
001F 120000   F     1837             LCALL   _fn_Display_String_LCD
                    1838     ;       delay_in_seconds(2);
                    1839                             ; SOURCE LINE # 336
0022 7F02           1840             MOV     R7,#02H
0024 120000   F     1841             LCALL   _delay_in_seconds
                    1842     ;       fnModuleSelect(SELECT_GSM_ON_UART);
                    1843                             ; SOURCE LINE # 337
0027 7F01           1844             MOV     R7,#01H
0029 120000   F     1845             LCALL   _fnModuleSelect
                    1846     ;       strcpy(guchGSMPhoneNumber,PHONE_NUMBERFOR_VB);
                    1847                             ; SOURCE LINE # 338
002C 7800     F     1848             MOV     R0,#LOW (guchGSMPhoneNumber)
002E 7C00     F     1849             MOV     R4,#HIGH (guchGSMPhoneNumber)
0030 7D01           1850             MOV     R5,#01H
0032 7BFF           1851             MOV     R3,#0FFH
0034 7A00     F     1852             MOV     R2,#HIGH (PHONE_NUMBERFOR_VB)
0036 7900     F     1853             MOV     R1,#LOW (PHONE_NUMBERFOR_VB)
0038 120000   F     1854             LCALL   ?C?STRCPY
                    1855     ;     strcpy(guchCompleteGSMDataPacket,"CAUTION: YOUR VEHICLE no 111 \n ");
                    1856                             ; SOURCE LINE # 339
003B 7800     F     1857             MOV     R0,#LOW (guchCompleteGSMDataPacket)
003D 7C00     F     1858             MOV     R4,#HIGH (guchCompleteGSMDataPacket)
003F 7D01           1859             MOV     R5,#01H
0041 7BFF           1860             MOV     R3,#0FFH
0043 7A00     F     1861             MOV     R2,#HIGH (?SC_585)
0045 7900     F     1862             MOV     R1,#LOW (?SC_585)
0047 120000   F     1863             LCALL   ?C?STRCPY
                    1864     ;       strcat(guchCompleteGSMDataPacket, "UNAUTHORISED PERSION IS TRYING TO OPEN LOCK AT D
                             ESTINATION\n");
                    1865                             ; SOURCE LINE # 340
004A 900000   F     1866             MOV     DPTR,#?_strcat?BYTE+03H
004D 74FF           1867             MOV     A,#0FFH
004F F0             1868             MOVX    @DPTR,A
0050 A3             1869             INC     DPTR
0051 7400     F     1870             MOV     A,#HIGH (?SC_776)
0053 F0             1871             MOVX    @DPTR,A
0054 A3             1872             INC     DPTR
0055 7400     F     1873             MOV     A,#LOW (?SC_776)
0057 F0             1874             MOVX    @DPTR,A
0058 7B01           1875             MOV     R3,#01H
005A 7A00     F     1876             MOV     R2,#HIGH (guchCompleteGSMDataPacket)
005C 7900     F     1877             MOV     R1,#LOW (guchCompleteGSMDataPacket)
005E 120000   F     1878             LCALL   _strcat
                    1879     ;     strcat(guchCompleteGSMDataPacket, " ITS CORDINATES ARE @");
                    1880                             ; SOURCE LINE # 341
0061 900000   F     1881             MOV     DPTR,#?_strcat?BYTE+03H
0064 74FF           1882             MOV     A,#0FFH
0066 F0             1883             MOVX    @DPTR,A
0067 A3             1884             INC     DPTR
0068 7400     F     1885             MOV     A,#HIGH (?SC_661)
006A F0             1886             MOVX    @DPTR,A
006B A3             1887             INC     DPTR
006C 7400     F     1888             MOV     A,#LOW (?SC_661)
A51 MACRO ASSEMBLER  PROJECTMAIN                                                          11/09/2012 17:30:11 PAGE    34

006E F0             1889             MOVX    @DPTR,A
006F 7B01           1890             MOV     R3,#01H
0071 7A00     F     1891             MOV     R2,#HIGH (guchCompleteGSMDataPacket)
0073 7900     F     1892             MOV     R1,#LOW (guchCompleteGSMDataPacket)
0075 120000   F     1893             LCALL   _strcat
                    1894     ;     strcat(guchCompleteGSMDataPacket, guchLatitude);
                    1895                             ; SOURCE LINE # 342
0078 900000   F     1896             MOV     DPTR,#?_strcat?BYTE+03H
007B 7401           1897             MOV     A,#01H
007D F0             1898             MOVX    @DPTR,A
007E A3             1899             INC     DPTR
007F 7400     F     1900             MOV     A,#HIGH (guchLatitude)
0081 F0             1901             MOVX    @DPTR,A
0082 A3             1902             INC     DPTR
0083 7400     F     1903             MOV     A,#LOW (guchLatitude)
0085 F0             1904             MOVX    @DPTR,A
0086 7B01           1905             MOV     R3,#01H
0088 7A00     F     1906             MOV     R2,#HIGH (guchCompleteGSMDataPacket)
008A 7900     F     1907             MOV     R1,#LOW (guchCompleteGSMDataPacket)
008C 120000   F     1908             LCALL   _strcat
                    1909     ;     strcat(guchCompleteGSMDataPacket,"N ");
                    1910                             ; SOURCE LINE # 343
008F 900000   F     1911             MOV     DPTR,#?_strcat?BYTE+03H
0092 74FF           1912             MOV     A,#0FFH
0094 F0             1913             MOVX    @DPTR,A
0095 A3             1914             INC     DPTR
0096 7400     F     1915             MOV     A,#HIGH (?SC_683)
0098 F0             1916             MOVX    @DPTR,A
0099 A3             1917             INC     DPTR
009A 7400     F     1918             MOV     A,#LOW (?SC_683)
009C F0             1919             MOVX    @DPTR,A
009D 7B01           1920             MOV     R3,#01H
009F 7A00     F     1921             MOV     R2,#HIGH (guchCompleteGSMDataPacket)
00A1 7900     F     1922             MOV     R1,#LOW (guchCompleteGSMDataPacket)
00A3 120000   F     1923             LCALL   _strcat
                    1924     ;     strcat(guchCompleteGSMDataPacket, guchLongitude);
                    1925                             ; SOURCE LINE # 344
00A6 900000   F     1926             MOV     DPTR,#?_strcat?BYTE+03H
00A9 7401           1927             MOV     A,#01H
00AB F0             1928             MOVX    @DPTR,A
00AC A3             1929             INC     DPTR
00AD 7400     F     1930             MOV     A,#HIGH (guchLongitude)
00AF F0             1931             MOVX    @DPTR,A
00B0 A3             1932             INC     DPTR
00B1 7400     F     1933             MOV     A,#LOW (guchLongitude)
00B3 F0             1934             MOVX    @DPTR,A
00B4 7B01           1935             MOV     R3,#01H
00B6 7A00     F     1936             MOV     R2,#HIGH (guchCompleteGSMDataPacket)
00B8 7900     F     1937             MOV     R1,#LOW (guchCompleteGSMDataPacket)
00BA 120000   F     1938             LCALL   _strcat
                    1939     ;     strcat(guchCompleteGSMDataPacket,"E");
                    1940                             ; SOURCE LINE # 345
00BD 900000   F     1941             MOV     DPTR,#?_strcat?BYTE+03H
00C0 74FF           1942             MOV     A,#0FFH
00C2 F0             1943             MOVX    @DPTR,A
00C3 A3             1944             INC     DPTR
00C4 7400     F     1945             MOV     A,#HIGH (?SC_686)
00C6 F0             1946             MOVX    @DPTR,A
00C7 A3             1947             INC     DPTR
00C8 7400     F     1948             MOV     A,#LOW (?SC_686)
00CA F0             1949             MOVX    @DPTR,A
00CB 7B01           1950             MOV     R3,#01H
00CD 7A00     F     1951             MOV     R2,#HIGH (guchCompleteGSMDataPacket)
00CF 7900     F     1952             MOV     R1,#LOW (guchCompleteGSMDataPacket)
00D1 120000   F     1953             LCALL   _strcat
                    1954     ;     fnGSMSendMessage(guchGSMPhoneNumber,guchCompleteGSMDataPacket);
A51 MACRO ASSEMBLER  PROJECTMAIN                                                          11/09/2012 17:30:11 PAGE    35

                    1955                             ; SOURCE LINE # 346
00D4 900000   F     1956             MOV     DPTR,#?_fnGSMSendMessage?BYTE+03H
00D7 7401           1957             MOV     A,#01H
00D9 F0             1958             MOVX    @DPTR,A
00DA A3             1959             INC     DPTR
00DB 7400     F     1960             MOV     A,#HIGH (guchCompleteGSMDataPacket)
00DD F0             1961             MOVX    @DPTR,A
00DE A3             1962             INC     DPTR
00DF 7400     F     1963             MOV     A,#LOW (guchCompleteGSMDataPacket)
00E1 F0             1964             MOVX    @DPTR,A
00E2 7B01           1965             MOV     R3,#01H
00E4 7A00     F     1966             MOV     R2,#HIGH (guchGSMPhoneNumber)
00E6 7900     F     1967             MOV     R1,#LOW (guchGSMPhoneNumber)
00E8 120000   F     1968             LCALL   _fnGSMSendMessage
                    1969     ;       
                    1970     ;       fnModuleSelect(SELECT_PC_ON_UART);
                    1971                             ; SOURCE LINE # 348
00EB 7F03           1972             MOV     R7,#03H
00ED 120000   F     1973             LCALL   _fnModuleSelect
                    1974     ;       printf("guchCompleteGSMDataPacket = %s\n",guchCompleteGSMDataPacket);   
                    1975                             ; SOURCE LINE # 349
00F0 900000   F     1976             MOV     DPTR,#?_printf?BYTE+03H
00F3 7401           1977             MOV     A,#01H
00F5 F0             1978             MOVX    @DPTR,A
00F6 A3             1979             INC     DPTR
00F7 7400     F     1980             MOV     A,#HIGH (guchCompleteGSMDataPacket)
00F9 F0             1981             MOVX    @DPTR,A
00FA A3             1982             INC     DPTR
00FB 7400     F     1983             MOV     A,#LOW (guchCompleteGSMDataPacket)
00FD F0             1984             MOVX    @DPTR,A
00FE 7BFF           1985             MOV     R3,#0FFH
0100 7A00     F     1986             MOV     R2,#HIGH (?SC_134)
0102 7900     F     1987             MOV     R1,#LOW (?SC_134)
0104 020000   F     1988             LJMP    _printf
                    1989     ; END OF fnInvalidAuthorisationAtDestination
                    1990     
                    1991     ; }
                    1992     ; 
                    1993     ; 
                    1994     ; void fnCargoTampered(void)
                    1995     
----                1996             RSEG  ?PR?fnCargoTampered?PROJECTMAIN
0000                1997     fnCargoTampered:
                    1998             USING   0
                    1999                             ; SOURCE LINE # 353
                    2000     ; {
                    2001                             ; SOURCE LINE # 354
                    2002     ;       Buzzer_pin=BUZZERENABLED;
                    2003                             ; SOURCE LINE # 355
0000 D280           2004             SETB    Buzzer_pin
                    2005     ;       fnModuleSelect(SELECT_GSM_ON_UART);
                    2006                             ; SOURCE LINE # 356
0002 7F01           2007             MOV     R7,#01H
0004 120000   F     2008             LCALL   _fnModuleSelect
                    2009     ;       strcpy(guchGSMPhoneNumber,PHONE_NUMBERS[0]);
                    2010                             ; SOURCE LINE # 357
0007 7800     F     2011             MOV     R0,#LOW (guchGSMPhoneNumber)
0009 7C00     F     2012             MOV     R4,#HIGH (guchGSMPhoneNumber)
000B 7D01           2013             MOV     R5,#01H
000D 7BFF           2014             MOV     R3,#0FFH
000F 7A00     F     2015             MOV     R2,#HIGH (PHONE_NUMBERS)
0011 7900     F     2016             MOV     R1,#LOW (PHONE_NUMBERS)
0013 120000   F     2017             LCALL   ?C?STRCPY
                    2018     ;     strcpy(guchCompleteGSMDataPacket,"CAUTION: YOUR VEHICLE no 111 \n ");
                    2019                             ; SOURCE LINE # 358
0016 7800     F     2020             MOV     R0,#LOW (guchCompleteGSMDataPacket)
A51 MACRO ASSEMBLER  PROJECTMAIN                                                          11/09/2012 17:30:11 PAGE    36

0018 7C00     F     2021             MOV     R4,#HIGH (guchCompleteGSMDataPacket)
001A 7D01           2022             MOV     R5,#01H
001C 7BFF           2023             MOV     R3,#0FFH
001E 7A00     F     2024             MOV     R2,#HIGH (?SC_585)
0020 7900     F     2025             MOV     R1,#LOW (?SC_585)
0022 120000   F     2026             LCALL   ?C?STRCPY
                    2027     ;       strcat(guchCompleteGSMDataPacket, "IS TAMPERED!!  \n");
                    2028                             ; SOURCE LINE # 359
0025 900000   F     2029             MOV     DPTR,#?_strcat?BYTE+03H
0028 74FF           2030             MOV     A,#0FFH
002A F0             2031             MOVX    @DPTR,A
002B A3             2032             INC     DPTR
002C 7400     F     2033             MOV     A,#HIGH (?SC_836)
002E F0             2034             MOVX    @DPTR,A
002F A3             2035             INC     DPTR
0030 7400     F     2036             MOV     A,#LOW (?SC_836)
0032 F0             2037             MOVX    @DPTR,A
0033 7B01           2038             MOV     R3,#01H
0035 7A00     F     2039             MOV     R2,#HIGH (guchCompleteGSMDataPacket)
0037 7900     F     2040             MOV     R1,#LOW (guchCompleteGSMDataPacket)
0039 120000   F     2041             LCALL   _strcat
                    2042     ;       strcat(guchCompleteGSMDataPacket, uchBuff);
                    2043                             ; SOURCE LINE # 360
003C 900000   F     2044             MOV     DPTR,#?_strcat?BYTE+03H
003F 7401           2045             MOV     A,#01H
0041 F0             2046             MOVX    @DPTR,A
0042 A3             2047             INC     DPTR
0043 7400     F     2048             MOV     A,#HIGH (uchBuff)
0045 F0             2049             MOVX    @DPTR,A
0046 A3             2050             INC     DPTR
0047 7400     F     2051             MOV     A,#LOW (uchBuff)
0049 F0             2052             MOVX    @DPTR,A
004A 7B01           2053             MOV     R3,#01H
004C 7A00     F     2054             MOV     R2,#HIGH (guchCompleteGSMDataPacket)
004E 7900     F     2055             MOV     R1,#LOW (guchCompleteGSMDataPacket)
0050 120000   F     2056             LCALL   _strcat
                    2057     ;     strcat(guchCompleteGSMDataPacket, " \r ITS CORDINATES ARE\n ");
                    2058                             ; SOURCE LINE # 361
0053 900000   F     2059             MOV     DPTR,#?_strcat?BYTE+03H
0056 74FF           2060             MOV     A,#0FFH
0058 F0             2061             MOVX    @DPTR,A
0059 A3             2062             INC     DPTR
005A 7400     F     2063             MOV     A,#HIGH (?SC_853)
005C F0             2064             MOVX    @DPTR,A
005D A3             2065             INC     DPTR
005E 7400     F     2066             MOV     A,#LOW (?SC_853)
0060 F0             2067             MOVX    @DPTR,A
0061 7B01           2068             MOV     R3,#01H
0063 7A00     F     2069             MOV     R2,#HIGH (guchCompleteGSMDataPacket)
0065 7900     F     2070             MOV     R1,#LOW (guchCompleteGSMDataPacket)
0067 120000   F     2071             LCALL   _strcat
                    2072     ;     strcat(guchCompleteGSMDataPacket, guchLatitude);
                    2073                             ; SOURCE LINE # 362
006A 900000   F     2074             MOV     DPTR,#?_strcat?BYTE+03H
006D 7401           2075             MOV     A,#01H
006F F0             2076             MOVX    @DPTR,A
0070 A3             2077             INC     DPTR
0071 7400     F     2078             MOV     A,#HIGH (guchLatitude)
0073 F0             2079             MOVX    @DPTR,A
0074 A3             2080             INC     DPTR
0075 7400     F     2081             MOV     A,#LOW (guchLatitude)
0077 F0             2082             MOVX    @DPTR,A
0078 7B01           2083             MOV     R3,#01H
007A 7A00     F     2084             MOV     R2,#HIGH (guchCompleteGSMDataPacket)
007C 7900     F     2085             MOV     R1,#LOW (guchCompleteGSMDataPacket)
007E 120000   F     2086             LCALL   _strcat
A51 MACRO ASSEMBLER  PROJECTMAIN                                                          11/09/2012 17:30:11 PAGE    37

                    2087     ;     strcat(guchCompleteGSMDataPacket,"N\n");
                    2088                             ; SOURCE LINE # 363
0081 900000   F     2089             MOV     DPTR,#?_strcat?BYTE+03H
0084 74FF           2090             MOV     A,#0FFH
0086 F0             2091             MOVX    @DPTR,A
0087 A3             2092             INC     DPTR
0088 7400     F     2093             MOV     A,#HIGH (?SC_754)
008A F0             2094             MOVX    @DPTR,A
008B A3             2095             INC     DPTR
008C 7400     F     2096             MOV     A,#LOW (?SC_754)
008E F0             2097             MOVX    @DPTR,A
008F 7B01           2098             MOV     R3,#01H
0091 7A00     F     2099             MOV     R2,#HIGH (guchCompleteGSMDataPacket)
0093 7900     F     2100             MOV     R1,#LOW (guchCompleteGSMDataPacket)
0095 120000   F     2101             LCALL   _strcat
                    2102     ;     strcat(guchCompleteGSMDataPacket, guchLongitude);
                    2103                             ; SOURCE LINE # 364
0098 900000   F     2104             MOV     DPTR,#?_strcat?BYTE+03H
009B 7401           2105             MOV     A,#01H
009D F0             2106             MOVX    @DPTR,A
009E A3             2107             INC     DPTR
009F 7400     F     2108             MOV     A,#HIGH (guchLongitude)
00A1 F0             2109             MOVX    @DPTR,A
00A2 A3             2110             INC     DPTR
00A3 7400     F     2111             MOV     A,#LOW (guchLongitude)
00A5 F0             2112             MOVX    @DPTR,A
00A6 7B01           2113             MOV     R3,#01H
00A8 7A00     F     2114             MOV     R2,#HIGH (guchCompleteGSMDataPacket)
00AA 7900     F     2115             MOV     R1,#LOW (guchCompleteGSMDataPacket)
00AC 120000   F     2116             LCALL   _strcat
                    2117     ;     strcat(guchCompleteGSMDataPacket,"E\n");
                    2118                             ; SOURCE LINE # 365
00AF 900000   F     2119             MOV     DPTR,#?_strcat?BYTE+03H
00B2 74FF           2120             MOV     A,#0FFH
00B4 F0             2121             MOVX    @DPTR,A
00B5 A3             2122             INC     DPTR
00B6 7400     F     2123             MOV     A,#HIGH (?SC_757)
00B8 F0             2124             MOVX    @DPTR,A
00B9 A3             2125             INC     DPTR
00BA 7400     F     2126             MOV     A,#LOW (?SC_757)
00BC F0             2127             MOVX    @DPTR,A
00BD 7B01           2128             MOV     R3,#01H
00BF 7A00     F     2129             MOV     R2,#HIGH (guchCompleteGSMDataPacket)
00C1 7900     F     2130             MOV     R1,#LOW (guchCompleteGSMDataPacket)
00C3 120000   F     2131             LCALL   _strcat
                    2132     ;     fnGSMSendMessage(guchGSMPhoneNumber,guchCompleteGSMDataPacket);
                    2133                             ; SOURCE LINE # 366
00C6 900000   F     2134             MOV     DPTR,#?_fnGSMSendMessage?BYTE+03H
00C9 7401           2135             MOV     A,#01H
00CB F0             2136             MOVX    @DPTR,A
00CC A3             2137             INC     DPTR
00CD 7400     F     2138             MOV     A,#HIGH (guchCompleteGSMDataPacket)
00CF F0             2139             MOVX    @DPTR,A
00D0 A3             2140             INC     DPTR
00D1 7400     F     2141             MOV     A,#LOW (guchCompleteGSMDataPacket)
00D3 F0             2142             MOVX    @DPTR,A
00D4 7B01           2143             MOV     R3,#01H
00D6 7A00     F     2144             MOV     R2,#HIGH (guchGSMPhoneNumber)
00D8 7900     F     2145             MOV     R1,#LOW (guchGSMPhoneNumber)
00DA 120000   F     2146             LCALL   _fnGSMSendMessage
                    2147     ; 
                    2148     ;       strcpy(guchGSMPhoneNumber,PHONE_NUMBERFOR_VB);
                    2149                             ; SOURCE LINE # 368
00DD 7800     F     2150             MOV     R0,#LOW (guchGSMPhoneNumber)
00DF 7C00     F     2151             MOV     R4,#HIGH (guchGSMPhoneNumber)
00E1 7D01           2152             MOV     R5,#01H
A51 MACRO ASSEMBLER  PROJECTMAIN                                                          11/09/2012 17:30:11 PAGE    38

00E3 7BFF           2153             MOV     R3,#0FFH
00E5 7A00     F     2154             MOV     R2,#HIGH (PHONE_NUMBERFOR_VB)
00E7 7900     F     2155             MOV     R1,#LOW (PHONE_NUMBERFOR_VB)
00E9 120000   F     2156             LCALL   ?C?STRCPY
                    2157     ;     strcpy(guchCompleteGSMDataPacket,"CAUTION: YOUR VEHICLE no 111 \n ");
                    2158                             ; SOURCE LINE # 369
00EC 7800     F     2159             MOV     R0,#LOW (guchCompleteGSMDataPacket)
00EE 7C00     F     2160             MOV     R4,#HIGH (guchCompleteGSMDataPacket)
00F0 7D01           2161             MOV     R5,#01H
00F2 7BFF           2162             MOV     R3,#0FFH
00F4 7A00     F     2163             MOV     R2,#HIGH (?SC_585)
00F6 7900     F     2164             MOV     R1,#LOW (?SC_585)
00F8 120000   F     2165             LCALL   ?C?STRCPY
                    2166     ;       strcat(guchCompleteGSMDataPacket, "IS TAMPERED!!  ");
                    2167                             ; SOURCE LINE # 370
00FB 900000   F     2168             MOV     DPTR,#?_strcat?BYTE+03H
00FE 74FF           2169             MOV     A,#0FFH
0100 F0             2170             MOVX    @DPTR,A
0101 A3             2171             INC     DPTR
0102 7400     F     2172             MOV     A,#HIGH (?SC_877)
0104 F0             2173             MOVX    @DPTR,A
0105 A3             2174             INC     DPTR
0106 7400     F     2175             MOV     A,#LOW (?SC_877)
0108 F0             2176             MOVX    @DPTR,A
0109 7B01           2177             MOV     R3,#01H
010B 7A00     F     2178             MOV     R2,#HIGH (guchCompleteGSMDataPacket)
010D 7900     F     2179             MOV     R1,#LOW (guchCompleteGSMDataPacket)
010F 120000   F     2180             LCALL   _strcat
                    2181     ;       strcat(guchCompleteGSMDataPacket, uchBuff);
                    2182                             ; SOURCE LINE # 371
0112 900000   F     2183             MOV     DPTR,#?_strcat?BYTE+03H
0115 7401           2184             MOV     A,#01H
0117 F0             2185             MOVX    @DPTR,A
0118 A3             2186             INC     DPTR
0119 7400     F     2187             MOV     A,#HIGH (uchBuff)
011B F0             2188             MOVX    @DPTR,A
011C A3             2189             INC     DPTR
011D 7400     F     2190             MOV     A,#LOW (uchBuff)
011F F0             2191             MOVX    @DPTR,A
0120 7B01           2192             MOV     R3,#01H
0122 7A00     F     2193             MOV     R2,#HIGH (guchCompleteGSMDataPacket)
0124 7900     F     2194             MOV     R1,#LOW (guchCompleteGSMDataPacket)
0126 120000   F     2195             LCALL   _strcat
                    2196     ;     strcat(guchCompleteGSMDataPacket, " ITS CORDINATES ARE @");
                    2197                             ; SOURCE LINE # 372
0129 900000   F     2198             MOV     DPTR,#?_strcat?BYTE+03H
012C 74FF           2199             MOV     A,#0FFH
012E F0             2200             MOVX    @DPTR,A
012F A3             2201             INC     DPTR
0130 7400     F     2202             MOV     A,#HIGH (?SC_661)
0132 F0             2203             MOVX    @DPTR,A
0133 A3             2204             INC     DPTR
0134 7400     F     2205             MOV     A,#LOW (?SC_661)
0136 F0             2206             MOVX    @DPTR,A
0137 7B01           2207             MOV     R3,#01H
0139 7A00     F     2208             MOV     R2,#HIGH (guchCompleteGSMDataPacket)
013B 7900     F     2209             MOV     R1,#LOW (guchCompleteGSMDataPacket)
013D 120000   F     2210             LCALL   _strcat
                    2211     ;     strcat(guchCompleteGSMDataPacket, guchLatitude);
                    2212                             ; SOURCE LINE # 373
0140 900000   F     2213             MOV     DPTR,#?_strcat?BYTE+03H
0143 7401           2214             MOV     A,#01H
0145 F0             2215             MOVX    @DPTR,A
0146 A3             2216             INC     DPTR
0147 7400     F     2217             MOV     A,#HIGH (guchLatitude)
0149 F0             2218             MOVX    @DPTR,A
A51 MACRO ASSEMBLER  PROJECTMAIN                                                          11/09/2012 17:30:11 PAGE    39

014A A3             2219             INC     DPTR
014B 7400     F     2220             MOV     A,#LOW (guchLatitude)
014D F0             2221             MOVX    @DPTR,A
014E 7B01           2222             MOV     R3,#01H
0150 7A00     F     2223             MOV     R2,#HIGH (guchCompleteGSMDataPacket)
0152 7900     F     2224             MOV     R1,#LOW (guchCompleteGSMDataPacket)
0154 120000   F     2225             LCALL   _strcat
                    2226     ;     strcat(guchCompleteGSMDataPacket,"N ");
                    2227                             ; SOURCE LINE # 374
0157 900000   F     2228             MOV     DPTR,#?_strcat?BYTE+03H
015A 74FF           2229             MOV     A,#0FFH
015C F0             2230             MOVX    @DPTR,A
015D A3             2231             INC     DPTR
015E 7400     F     2232             MOV     A,#HIGH (?SC_683)
0160 F0             2233             MOVX    @DPTR,A
0161 A3             2234             INC     DPTR
0162 7400     F     2235             MOV     A,#LOW (?SC_683)
0164 F0             2236             MOVX    @DPTR,A
0165 7B01           2237             MOV     R3,#01H
0167 7A00     F     2238             MOV     R2,#HIGH (guchCompleteGSMDataPacket)
0169 7900     F     2239             MOV     R1,#LOW (guchCompleteGSMDataPacket)
016B 120000   F     2240             LCALL   _strcat
                    2241     ;     strcat(guchCompleteGSMDataPacket, guchLongitude);
                    2242                             ; SOURCE LINE # 375
016E 900000   F     2243             MOV     DPTR,#?_strcat?BYTE+03H
0171 7401           2244             MOV     A,#01H
0173 F0             2245             MOVX    @DPTR,A
0174 A3             2246             INC     DPTR
0175 7400     F     2247             MOV     A,#HIGH (guchLongitude)
0177 F0             2248             MOVX    @DPTR,A
0178 A3             2249             INC     DPTR
0179 7400     F     2250             MOV     A,#LOW (guchLongitude)
017B F0             2251             MOVX    @DPTR,A
017C 7B01           2252             MOV     R3,#01H
017E 7A00     F     2253             MOV     R2,#HIGH (guchCompleteGSMDataPacket)
0180 7900     F     2254             MOV     R1,#LOW (guchCompleteGSMDataPacket)
0182 120000   F     2255             LCALL   _strcat
                    2256     ;     strcat(guchCompleteGSMDataPacket,"E");
                    2257                             ; SOURCE LINE # 376
0185 900000   F     2258             MOV     DPTR,#?_strcat?BYTE+03H
0188 74FF           2259             MOV     A,#0FFH
018A F0             2260             MOVX    @DPTR,A
018B A3             2261             INC     DPTR
018C 7400     F     2262             MOV     A,#HIGH (?SC_686)
018E F0             2263             MOVX    @DPTR,A
018F A3             2264             INC     DPTR
0190 7400     F     2265             MOV     A,#LOW (?SC_686)
0192 F0             2266             MOVX    @DPTR,A
0193 7B01           2267             MOV     R3,#01H
0195 7A00     F     2268             MOV     R2,#HIGH (guchCompleteGSMDataPacket)
0197 7900     F     2269             MOV     R1,#LOW (guchCompleteGSMDataPacket)
0199 120000   F     2270             LCALL   _strcat
                    2271     ;     fnGSMSendMessage(guchGSMPhoneNumber,guchCompleteGSMDataPacket);
                    2272                             ; SOURCE LINE # 377
019C 900000   F     2273             MOV     DPTR,#?_fnGSMSendMessage?BYTE+03H
019F 7401           2274             MOV     A,#01H
01A1 F0             2275             MOVX    @DPTR,A
01A2 A3             2276             INC     DPTR
01A3 7400     F     2277             MOV     A,#HIGH (guchCompleteGSMDataPacket)
01A5 F0             2278             MOVX    @DPTR,A
01A6 A3             2279             INC     DPTR
01A7 7400     F     2280             MOV     A,#LOW (guchCompleteGSMDataPacket)
01A9 F0             2281             MOVX    @DPTR,A
01AA 7B01           2282             MOV     R3,#01H
01AC 7A00     F     2283             MOV     R2,#HIGH (guchGSMPhoneNumber)
01AE 7900     F     2284             MOV     R1,#LOW (guchGSMPhoneNumber)
A51 MACRO ASSEMBLER  PROJECTMAIN                                                          11/09/2012 17:30:11 PAGE    40

01B0 120000   F     2285             LCALL   _fnGSMSendMessage
                    2286     ; 
                    2287     ;       fnModuleSelect(SELECT_PC_ON_UART);
                    2288                             ; SOURCE LINE # 379
01B3 7F03           2289             MOV     R7,#03H
01B5 120000   F     2290             LCALL   _fnModuleSelect
                    2291     ;       printf("guchCompleteGSMDataPacket = %s\n",guchCompleteGSMDataPacket);   
                    2292                             ; SOURCE LINE # 380
01B8 900000   F     2293             MOV     DPTR,#?_printf?BYTE+03H
01BB 7401           2294             MOV     A,#01H
01BD F0             2295             MOVX    @DPTR,A
01BE A3             2296             INC     DPTR
01BF 7400     F     2297             MOV     A,#HIGH (guchCompleteGSMDataPacket)
01C1 F0             2298             MOVX    @DPTR,A
01C2 A3             2299             INC     DPTR
01C3 7400     F     2300             MOV     A,#LOW (guchCompleteGSMDataPacket)
01C5 F0             2301             MOVX    @DPTR,A
01C6 7BFF           2302             MOV     R3,#0FFH
01C8 7A00     F     2303             MOV     R2,#HIGH (?SC_134)
01CA 7900     F     2304             MOV     R1,#LOW (?SC_134)
01CC 020000   F     2305             LJMP    _printf
                    2306     ; END OF fnCargoTampered
                    2307     
                    2308     ; }
                    2309     ; 
                    2310     ; 
                    2311     ; void fnInitialisationAtDestination(void)
                    2312     
----                2313             RSEG  ?PR?fnInitialisationAtDestination?PROJECTMAIN
0000                2314     fnInitialisationAtDestination:
                    2315             USING   0
                    2316                             ; SOURCE LINE # 384
                    2317     ; {
                    2318                             ; SOURCE LINE # 385
                    2319     ;       fnModuleSelect(SELECT_GSM_ON_UART);
                    2320                             ; SOURCE LINE # 386
0000 7F01           2321             MOV     R7,#01H
0002 120000   F     2322             LCALL   _fnModuleSelect
                    2323     ;       fnDeleteAllMessages();
                    2324                             ; SOURCE LINE # 387
0005 120000   F     2325             LCALL   fnDeleteAllMessages
                    2326     ;       
                    2327     ;       strcpy(guchGSMPhoneNumber,PHONE_NUMBERFOR_VB);
                    2328                             ; SOURCE LINE # 389
0008 7800     F     2329             MOV     R0,#LOW (guchGSMPhoneNumber)
000A 7C00     F     2330             MOV     R4,#HIGH (guchGSMPhoneNumber)
000C 7D01           2331             MOV     R5,#01H
000E 7BFF           2332             MOV     R3,#0FFH
0010 7A00     F     2333             MOV     R2,#HIGH (PHONE_NUMBERFOR_VB)
0012 7900     F     2334             MOV     R1,#LOW (PHONE_NUMBERFOR_VB)
0014 120000   F     2335             LCALL   ?C?STRCPY
                    2336     ;     strcpy(guchCompleteGSMDataPacket,"CAUTION: YOUR VEHICLE no 111 ");
                    2337                             ; SOURCE LINE # 390
0017 7800     F     2338             MOV     R0,#LOW (guchCompleteGSMDataPacket)
0019 7C00     F     2339             MOV     R4,#HIGH (guchCompleteGSMDataPacket)
001B 7D01           2340             MOV     R5,#01H
001D 7BFF           2341             MOV     R3,#0FFH
001F 7A00     F     2342             MOV     R2,#HIGH (?SC_893)
0021 7900     F     2343             MOV     R1,#LOW (?SC_893)
0023 120000   F     2344             LCALL   ?C?STRCPY
                    2345     ;       strcat(guchCompleteGSMDataPacket, "Has REACHED TO DESTINATION ");
                    2346                             ; SOURCE LINE # 391
0026 900000   F     2347             MOV     DPTR,#?_strcat?BYTE+03H
0029 74FF           2348             MOV     A,#0FFH
002B F0             2349             MOVX    @DPTR,A
002C A3             2350             INC     DPTR
A51 MACRO ASSEMBLER  PROJECTMAIN                                                          11/09/2012 17:30:11 PAGE    41

002D 7400     F     2351             MOV     A,#HIGH (?SC_923)
002F F0             2352             MOVX    @DPTR,A
0030 A3             2353             INC     DPTR
0031 7400     F     2354             MOV     A,#LOW (?SC_923)
0033 F0             2355             MOVX    @DPTR,A
0034 7B01           2356             MOV     R3,#01H
0036 7A00     F     2357             MOV     R2,#HIGH (guchCompleteGSMDataPacket)
0038 7900     F     2358             MOV     R1,#LOW (guchCompleteGSMDataPacket)
003A 120000   F     2359             LCALL   _strcat
                    2360     ;     strcat(guchCompleteGSMDataPacket, " ITS CORDINATES ARE @");
                    2361                             ; SOURCE LINE # 392
003D 900000   F     2362             MOV     DPTR,#?_strcat?BYTE+03H
0040 74FF           2363             MOV     A,#0FFH
0042 F0             2364             MOVX    @DPTR,A
0043 A3             2365             INC     DPTR
0044 7400     F     2366             MOV     A,#HIGH (?SC_661)
0046 F0             2367             MOVX    @DPTR,A
0047 A3             2368             INC     DPTR
0048 7400     F     2369             MOV     A,#LOW (?SC_661)
004A F0             2370             MOVX    @DPTR,A
004B 7B01           2371             MOV     R3,#01H
004D 7A00     F     2372             MOV     R2,#HIGH (guchCompleteGSMDataPacket)
004F 7900     F     2373             MOV     R1,#LOW (guchCompleteGSMDataPacket)
0051 120000   F     2374             LCALL   _strcat
                    2375     ;     strcat(guchCompleteGSMDataPacket, guchLatitude);
                    2376                             ; SOURCE LINE # 393
0054 900000   F     2377             MOV     DPTR,#?_strcat?BYTE+03H
0057 7401           2378             MOV     A,#01H
0059 F0             2379             MOVX    @DPTR,A
005A A3             2380             INC     DPTR
005B 7400     F     2381             MOV     A,#HIGH (guchLatitude)
005D F0             2382             MOVX    @DPTR,A
005E A3             2383             INC     DPTR
005F 7400     F     2384             MOV     A,#LOW (guchLatitude)
0061 F0             2385             MOVX    @DPTR,A
0062 7B01           2386             MOV     R3,#01H
0064 7A00     F     2387             MOV     R2,#HIGH (guchCompleteGSMDataPacket)
0066 7900     F     2388             MOV     R1,#LOW (guchCompleteGSMDataPacket)
0068 120000   F     2389             LCALL   _strcat
                    2390     ;     strcat(guchCompleteGSMDataPacket,"N ");
                    2391                             ; SOURCE LINE # 394
006B 900000   F     2392             MOV     DPTR,#?_strcat?BYTE+03H
006E 74FF           2393             MOV     A,#0FFH
0070 F0             2394             MOVX    @DPTR,A
0071 A3             2395             INC     DPTR
0072 7400     F     2396             MOV     A,#HIGH (?SC_683)
0074 F0             2397             MOVX    @DPTR,A
0075 A3             2398             INC     DPTR
0076 7400     F     2399             MOV     A,#LOW (?SC_683)
0078 F0             2400             MOVX    @DPTR,A
0079 7B01           2401             MOV     R3,#01H
007B 7A00     F     2402             MOV     R2,#HIGH (guchCompleteGSMDataPacket)
007D 7900     F     2403             MOV     R1,#LOW (guchCompleteGSMDataPacket)
007F 120000   F     2404             LCALL   _strcat
                    2405     ;     strcat(guchCompleteGSMDataPacket, guchLongitude);
                    2406                             ; SOURCE LINE # 395
0082 900000   F     2407             MOV     DPTR,#?_strcat?BYTE+03H
0085 7401           2408             MOV     A,#01H
0087 F0             2409             MOVX    @DPTR,A
0088 A3             2410             INC     DPTR
0089 7400     F     2411             MOV     A,#HIGH (guchLongitude)
008B F0             2412             MOVX    @DPTR,A
008C A3             2413             INC     DPTR
008D 7400     F     2414             MOV     A,#LOW (guchLongitude)
008F F0             2415             MOVX    @DPTR,A
0090 7B01           2416             MOV     R3,#01H
A51 MACRO ASSEMBLER  PROJECTMAIN                                                          11/09/2012 17:30:11 PAGE    42

0092 7A00     F     2417             MOV     R2,#HIGH (guchCompleteGSMDataPacket)
0094 7900     F     2418             MOV     R1,#LOW (guchCompleteGSMDataPacket)
0096 120000   F     2419             LCALL   _strcat
                    2420     ;     strcat(guchCompleteGSMDataPacket,"E");
                    2421                             ; SOURCE LINE # 396
0099 900000   F     2422             MOV     DPTR,#?_strcat?BYTE+03H
009C 74FF           2423             MOV     A,#0FFH
009E F0             2424             MOVX    @DPTR,A
009F A3             2425             INC     DPTR
00A0 7400     F     2426             MOV     A,#HIGH (?SC_686)
00A2 F0             2427             MOVX    @DPTR,A
00A3 A3             2428             INC     DPTR
00A4 7400     F     2429             MOV     A,#LOW (?SC_686)
00A6 F0             2430             MOVX    @DPTR,A
00A7 7B01           2431             MOV     R3,#01H
00A9 7A00     F     2432             MOV     R2,#HIGH (guchCompleteGSMDataPacket)
00AB 7900     F     2433             MOV     R1,#LOW (guchCompleteGSMDataPacket)
00AD 120000   F     2434             LCALL   _strcat
                    2435     ;     fnGSMSendMessage(guchGSMPhoneNumber,guchCompleteGSMDataPacket);   
                    2436                             ; SOURCE LINE # 397
00B0 900000   F     2437             MOV     DPTR,#?_fnGSMSendMessage?BYTE+03H
00B3 7401           2438             MOV     A,#01H
00B5 F0             2439             MOVX    @DPTR,A
00B6 A3             2440             INC     DPTR
00B7 7400     F     2441             MOV     A,#HIGH (guchCompleteGSMDataPacket)
00B9 F0             2442             MOVX    @DPTR,A
00BA A3             2443             INC     DPTR
00BB 7400     F     2444             MOV     A,#LOW (guchCompleteGSMDataPacket)
00BD F0             2445             MOVX    @DPTR,A
00BE 7B01           2446             MOV     R3,#01H
00C0 7A00     F     2447             MOV     R2,#HIGH (guchGSMPhoneNumber)
00C2 7900     F     2448             MOV     R1,#LOW (guchGSMPhoneNumber)
00C4 120000   F     2449             LCALL   _fnGSMSendMessage
                    2450     ; 
                    2451     ;       fnModuleSelect(SELECT_PC_ON_UART);
                    2452                             ; SOURCE LINE # 399
00C7 7F03           2453             MOV     R7,#03H
00C9 120000   F     2454             LCALL   _fnModuleSelect
                    2455     ;       fn_lcd_select_line_and_location(LCD_LINE_1,LOCATION_0);
                    2456                             ; SOURCE LINE # 400
00CC E4             2457             CLR     A
00CD FD             2458             MOV     R5,A
00CE 7F01           2459             MOV     R7,#01H
00D0 120000   F     2460             LCALL   _fn_lcd_select_line_and_location
                    2461     ;       fn_Display_String_LCD("MSG SendToBaseSt");        
                    2462                             ; SOURCE LINE # 401
00D3 7BFF           2463             MOV     R3,#0FFH
00D5 7A00     F     2464             MOV     R2,#HIGH (?SC_951)
00D7 7900     F     2465             MOV     R1,#LOW (?SC_951)
00D9 120000   F     2466             LCALL   _fn_Display_String_LCD
                    2467     ;       
                    2468     ;       printf("guchCompleteGSMDataPacket = %s\n",guchCompleteGSMDataPacket);   
                    2469                             ; SOURCE LINE # 403
00DC 900000   F     2470             MOV     DPTR,#?_printf?BYTE+03H
00DF 7401           2471             MOV     A,#01H
00E1 F0             2472             MOVX    @DPTR,A
00E2 A3             2473             INC     DPTR
00E3 7400     F     2474             MOV     A,#HIGH (guchCompleteGSMDataPacket)
00E5 F0             2475             MOVX    @DPTR,A
00E6 A3             2476             INC     DPTR
00E7 7400     F     2477             MOV     A,#LOW (guchCompleteGSMDataPacket)
00E9 F0             2478             MOVX    @DPTR,A
00EA 7BFF           2479             MOV     R3,#0FFH
00EC 7A00     F     2480             MOV     R2,#HIGH (?SC_134)
00EE 7900     F     2481             MOV     R1,#LOW (?SC_134)
00F0 020000   F     2482             LJMP    _printf
A51 MACRO ASSEMBLER  PROJECTMAIN                                                          11/09/2012 17:30:11 PAGE    43

                    2483     ; END OF fnInitialisationAtDestination
                    2484     
                    2485     ; }
                    2486     ; 
                    2487     ; 
                    2488     ; 
                    2489     ; 
                    2490     ; 
                    2491     ; 
                    2492     ; void fnToCheckInboxStatusAndDecryptCommandsIfAnySMS(void)
                    2493     
----                2494             RSEG  ?PR?fnToCheckInboxStatusAndDecryptCommandsIfAnySMS?PROJECTMAIN
0000                2495     fnToCheckInboxStatusAndDecryptCommandsIfAnySMS:
                    2496             USING   0
                    2497                             ; SOURCE LINE # 411
                    2498     ; {
                    2499                             ; SOURCE LINE # 412
                    2500     ;       uchTempVariable = uchfnCheckInboxStatus();
                    2501                             ; SOURCE LINE # 413
0000 120000   F     2502             LCALL   uchfnCheckInboxStatus
0003 900000   F     2503             MOV     DPTR,#uchTempVariable
                    2504     ;               
                    2505     ;               fnModuleSelect(SELECT_PC_ON_UART);      
                    2506                             ; SOURCE LINE # 415
0006 120000   F     2507             LCALL   L?0054
                    2508     ;                                
                    2509     ;               switch(uchTempVariable)
                    2510                             ; SOURCE LINE # 417
0009 E0             2511             MOVX    A,@DPTR
000A 14             2512             DEC     A
000B 604D           2513             JZ      ?C0042
000D 24FE           2514             ADD     A,#0FEH
000F 7003           2515             JNZ     $ + 5H
0011 020000   F     2516             LJMP    ?C0043
0014 2403           2517             ADD     A,#03H
0016 6003           2518             JZ      $ + 5H
0018 020000   F     2519             LJMP    ?C0044
                    2520     ;               {
                    2521                             ; SOURCE LINE # 418
                    2522     ;                       case NEWMESSAGE:
                    2523                             ; SOURCE LINE # 419
001B                2524     ?C0041:
                    2525     ;                               printf("\nNEW Message Present in INBOX");       
                    2526                             ; SOURCE LINE # 420
001B 7BFF           2527             MOV     R3,#0FFH
001D 7A00     F     2528             MOV     R2,#HIGH (?SC_968)
001F 7900     F     2529             MOV     R1,#LOW (?SC_968)
0021 120000   F     2530             LCALL   _printf
                    2531     ;                               fnExtractPhoneNoAndMessage();
                    2532                             ; SOURCE LINE # 421
0024 120000   F     2533             LCALL   fnExtractPhoneNoAndMessage
                    2534     ;                               printf("\nPhone Number = %s\n", guchphonenumberpacket); 
                    2535                             ; SOURCE LINE # 422
0027 900000   F     2536             MOV     DPTR,#?_printf?BYTE+03H
002A 7401           2537             MOV     A,#01H
002C F0             2538             MOVX    @DPTR,A
002D A3             2539             INC     DPTR
002E 7400     F     2540             MOV     A,#HIGH (guchphonenumberpacket)
0030 F0             2541             MOVX    @DPTR,A
0031 A3             2542             INC     DPTR
0032 7400     F     2543             MOV     A,#LOW (guchphonenumberpacket)
0034 F0             2544             MOVX    @DPTR,A
0035 7BFF           2545             MOV     R3,#0FFH
0037 7A00     F     2546             MOV     R2,#HIGH (?SC_998)
0039 7900     F     2547             MOV     R1,#LOW (?SC_998)
003B 120000   F     2548             LCALL   _printf
A51 MACRO ASSEMBLER  PROJECTMAIN                                                          11/09/2012 17:30:11 PAGE    44

                    2549     ;                               printf("\nMessage = %s\n", guchmessagepacket);
                    2550                             ; SOURCE LINE # 423
003E 900000   F     2551             MOV     DPTR,#?_printf?BYTE+03H
0041 7401           2552             MOV     A,#01H
0043 F0             2553             MOVX    @DPTR,A
0044 A3             2554             INC     DPTR
0045 7400     F     2555             MOV     A,#HIGH (guchmessagepacket)
0047 F0             2556             MOVX    @DPTR,A
0048 A3             2557             INC     DPTR
0049 7400     F     2558             MOV     A,#LOW (guchmessagepacket)
004B F0             2559             MOVX    @DPTR,A
004C 7BFF           2560             MOV     R3,#0FFH
004E 7A00     F     2561             MOV     R2,#HIGH (?SC_1018)
0050 7900     F     2562             MOV     R1,#LOW (?SC_1018)
0052 120000   F     2563             LCALL   _printf
                    2564     ;                               fnDecryptCommandsInSMS();
                    2565                             ; SOURCE LINE # 424
0055 120000   F     2566             LCALL   fnDecryptCommandsInSMS
                    2567     ;                               break;
                    2568                             ; SOURCE LINE # 425
0058 804A           2569             SJMP    ?C0040
                    2570     ;                       case NONEWMESSAGE:
                    2571                             ; SOURCE LINE # 426
005A                2572     ?C0042:
                    2573     ;                               printf("\nNO new message in inbox");    
                    2574                             ; SOURCE LINE # 427
005A 7BFF           2575             MOV     R3,#0FFH
005C 7A00     F     2576             MOV     R2,#HIGH (?SC_1033)
005E 7900     F     2577             MOV     R1,#LOW (?SC_1033)
0060 120000   F     2578             LCALL   _printf
                    2579     ;                               fnExtractPhoneNoAndMessage();
                    2580                             ; SOURCE LINE # 428
0063 120000   F     2581             LCALL   fnExtractPhoneNoAndMessage
                    2582     ;                               printf("\nPhone Number = %s\n", guchphonenumberpacket); 
                    2583                             ; SOURCE LINE # 429
0066 900000   F     2584             MOV     DPTR,#?_printf?BYTE+03H
0069 7401           2585             MOV     A,#01H
006B F0             2586             MOVX    @DPTR,A
006C A3             2587             INC     DPTR
006D 7400     F     2588             MOV     A,#HIGH (guchphonenumberpacket)
006F F0             2589             MOVX    @DPTR,A
0070 A3             2590             INC     DPTR
0071 7400     F     2591             MOV     A,#LOW (guchphonenumberpacket)
0073 F0             2592             MOVX    @DPTR,A
0074 7BFF           2593             MOV     R3,#0FFH
0076 7A00     F     2594             MOV     R2,#HIGH (?SC_998)
0078 7900     F     2595             MOV     R1,#LOW (?SC_998)
007A 120000   F     2596             LCALL   _printf
                    2597     ;                               printf("\nMessage = %s\n", guchmessagepacket);
                    2598                             ; SOURCE LINE # 430
007D 900000   F     2599             MOV     DPTR,#?_printf?BYTE+03H
0080 7401           2600             MOV     A,#01H
0082 F0             2601             MOVX    @DPTR,A
0083 A3             2602             INC     DPTR
0084 7400     F     2603             MOV     A,#HIGH (guchmessagepacket)
0086 F0             2604             MOVX    @DPTR,A
0087 A3             2605             INC     DPTR
0088 7400     F     2606             MOV     A,#LOW (guchmessagepacket)
008A F0             2607             MOVX    @DPTR,A
008B 7BFF           2608             MOV     R3,#0FFH
008D 7A00     F     2609             MOV     R2,#HIGH (?SC_1018)
008F 7900     F     2610             MOV     R1,#LOW (?SC_1018)
                    2611     ;                               break; 
                    2612                             ; SOURCE LINE # 431
0091 800E           2613             SJMP    ?C0053
                    2614     ;                       case INBOXEMPTY:
A51 MACRO ASSEMBLER  PROJECTMAIN                                                          11/09/2012 17:30:11 PAGE    45

                    2615                             ; SOURCE LINE # 432
0093                2616     ?C0043:
                    2617     ;                               printf("\nINBOX EMPTY\n");      
                    2618                             ; SOURCE LINE # 433
0093 7BFF           2619             MOV     R3,#0FFH
0095 7A00     F     2620             MOV     R2,#HIGH (?SC_1058)
0097 7900     F     2621             MOV     R1,#LOW (?SC_1058)
0099                2622     ?C0052:
                    2623     ;                               break; 
                    2624                             ; SOURCE LINE # 434
0099 8006           2625             SJMP    ?C0053
                    2626     ;                       default:
                    2627                             ; SOURCE LINE # 435
009B                2628     ?C0044:
                    2629     ;                               printf("\nERROR Reading Status");       
                    2630                             ; SOURCE LINE # 436
009B 7BFF           2631             MOV     R3,#0FFH
009D 7A00     F     2632             MOV     R2,#HIGH (?SC_1072)
009F 7900     F     2633             MOV     R1,#LOW (?SC_1072)
00A1                2634     ?C0053:
00A1 120000   F     2635             LCALL   _printf
                    2636     ;                               break;                                                     
                                  
                    2637                             ; SOURCE LINE # 437
                    2638     ;               }
                    2639                             ; SOURCE LINE # 438
00A4                2640     ?C0040:
                    2641     ;               printf("\nInbox Status Checked and Message Decoded if any present\n");  
                    2642                             ; SOURCE LINE # 439
00A4 7BFF           2643             MOV     R3,#0FFH
00A6 7A00     F     2644             MOV     R2,#HIGH (?SC_1094)
00A8 7900     F     2645             MOV     R1,#LOW (?SC_1094)
00AA 120000   F     2646             LCALL   _printf
                    2647     ;               RI=0;
                    2648                             ; SOURCE LINE # 440
00AD C298           2649             CLR     RI
                    2650     ;               RI=0;
                    2651                             ; SOURCE LINE # 441
00AF C298           2652             CLR     RI
                    2653     ;       
                    2654     ;               fnDeleteAllMessages();
                    2655                             ; SOURCE LINE # 443
00B1 120000   F     2656             LCALL   fnDeleteAllMessages
                    2657     ;               fnModuleSelect(SELECT_PC_ON_UART);
                    2658                             ; SOURCE LINE # 444
00B4 7F03           2659             MOV     R7,#03H
00B6 120000   F     2660             LCALL   _fnModuleSelect
                    2661     ;               printf("\nAll Messages Deleted\n"); 
                    2662                             ; SOURCE LINE # 445
00B9 7BFF           2663             MOV     R3,#0FFH
00BB 7A00     F     2664             MOV     R2,#HIGH (?SC_1152)
00BD 7900     F     2665             MOV     R1,#LOW (?SC_1152)
00BF 020000   F     2666             LJMP    _printf
                    2667     ; END OF fnToCheckInboxStatusAndDecryptCommandsIfAnySMS
                    2668     
                    2669     ;       
                    2670     ;  }
                    2671     ; 
                    2672     ;  void fnDecryptCommandsInSMS(void)
                    2673     
----                2674             RSEG  ?PR?fnDecryptCommandsInSMS?PROJECTMAIN
0000                2675     fnDecryptCommandsInSMS:
                    2676             USING   0
                    2677                             ; SOURCE LINE # 449
                    2678     ; {
                    2679                             ; SOURCE LINE # 450
A51 MACRO ASSEMBLER  PROJECTMAIN                                                          11/09/2012 17:30:11 PAGE    46

                    2680     ;       if(strstr(guchmessagepacket,"1234"))
                    2681                             ; SOURCE LINE # 451
0000 900000   F     2682             MOV     DPTR,#?_strstr?BYTE+03H
0003 74FF           2683             MOV     A,#0FFH
0005 F0             2684             MOVX    @DPTR,A
0006 A3             2685             INC     DPTR
0007 7400     F     2686             MOV     A,#HIGH (?SC_1175)
0009 F0             2687             MOVX    @DPTR,A
000A A3             2688             INC     DPTR
000B 7400     F     2689             MOV     A,#LOW (?SC_1175)
000D F0             2690             MOVX    @DPTR,A
000E 7B01           2691             MOV     R3,#01H
0010 7A00     F     2692             MOV     R2,#HIGH (guchmessagepacket)
0012 7900     F     2693             MOV     R1,#LOW (guchmessagepacket)
0014 120000   F     2694             LCALL   _strstr
0017 EA             2695             MOV     A,R2
0018 49             2696             ORL     A,R1
0019 4B             2697             ORL     A,R3
001A 7003           2698             JNZ     $ + 5H
001C 020000   F     2699             LJMP    ?C0048
                    2700     ;       {                                                                                  
                                                                          
                    2701                             ; SOURCE LINE # 452
                    2702     ;               if(strstr(guchmessagepacket,"STATUS"))
                    2703                             ; SOURCE LINE # 453
001F 900000   F     2704             MOV     DPTR,#?_strstr?BYTE+03H
0022 74FF           2705             MOV     A,#0FFH
0024 F0             2706             MOVX    @DPTR,A
0025 A3             2707             INC     DPTR
0026 7400     F     2708             MOV     A,#HIGH (?SC_1180)
0028 F0             2709             MOVX    @DPTR,A
0029 A3             2710             INC     DPTR
002A 7400     F     2711             MOV     A,#LOW (?SC_1180)
002C F0             2712             MOVX    @DPTR,A
002D 7B01           2713             MOV     R3,#01H
002F 7A00     F     2714             MOV     R2,#HIGH (guchmessagepacket)
0031 7900     F     2715             MOV     R1,#LOW (guchmessagepacket)
0033 120000   F     2716             LCALL   _strstr
0036 EA             2717             MOV     A,R2
0037 49             2718             ORL     A,R1
0038 4B             2719             ORL     A,R3
0039 7003           2720             JNZ     $ + 5H
003B 020000   F     2721             LJMP    ?C0048
                    2722     ;               {
                    2723                             ; SOURCE LINE # 454
                    2724     ;                       strcpy(guchGSMPhoneNumber,guchphonenumberpacket);
                    2725                             ; SOURCE LINE # 455
003E 7800     F     2726             MOV     R0,#LOW (guchGSMPhoneNumber)
0040 7C00     F     2727             MOV     R4,#HIGH (guchGSMPhoneNumber)
0042 7D01           2728             MOV     R5,#01H
0044 7B01           2729             MOV     R3,#01H
0046 7A00     F     2730             MOV     R2,#HIGH (guchphonenumberpacket)
0048 7900     F     2731             MOV     R1,#LOW (guchphonenumberpacket)
004A 120000   F     2732             LCALL   ?C?STRCPY
                    2733     ;                       strcpy(guchCompleteGSMDataPacket,"CAUTION:STATUS: YOUR VEHICLE no 1
                             11 ");
                    2734                             ; SOURCE LINE # 456
004D 7800     F     2735             MOV     R0,#LOW (guchCompleteGSMDataPacket)
004F 7C00     F     2736             MOV     R4,#HIGH (guchCompleteGSMDataPacket)
0051 7D01           2737             MOV     R5,#01H
0053 7BFF           2738             MOV     R3,#0FFH
0055 7A00     F     2739             MOV     R2,#HIGH (?SC_1187)
0057 7900     F     2740             MOV     R1,#LOW (?SC_1187)
0059 120000   F     2741             LCALL   ?C?STRCPY
                    2742     ;                       strcat(guchCompleteGSMDataPacket, uchBuff);
                    2743                             ; SOURCE LINE # 457
A51 MACRO ASSEMBLER  PROJECTMAIN                                                          11/09/2012 17:30:11 PAGE    47

005C 900000   F     2744             MOV     DPTR,#?_strcat?BYTE+03H
005F 7401           2745             MOV     A,#01H
0061 F0             2746             MOVX    @DPTR,A
0062 A3             2747             INC     DPTR
0063 7400     F     2748             MOV     A,#HIGH (uchBuff)
0065 F0             2749             MOVX    @DPTR,A
0066 A3             2750             INC     DPTR
0067 7400     F     2751             MOV     A,#LOW (uchBuff)
0069 F0             2752             MOVX    @DPTR,A
006A 7B01           2753             MOV     R3,#01H
006C 7A00     F     2754             MOV     R2,#HIGH (guchCompleteGSMDataPacket)
006E 7900     F     2755             MOV     R1,#LOW (guchCompleteGSMDataPacket)
0070 120000   F     2756             LCALL   _strcat
                    2757     ;                       strcat(guchCompleteGSMDataPacket, " IT'S CORDINATES ARE @");
                    2758                             ; SOURCE LINE # 458
0073 900000   F     2759             MOV     DPTR,#?_strcat?BYTE+03H
0076 74FF           2760             MOV     A,#0FFH
0078 F0             2761             MOVX    @DPTR,A
0079 A3             2762             INC     DPTR
007A 7400     F     2763             MOV     A,#HIGH (?SC_1224)
007C F0             2764             MOVX    @DPTR,A
007D A3             2765             INC     DPTR
007E 7400     F     2766             MOV     A,#LOW (?SC_1224)
0080 F0             2767             MOVX    @DPTR,A
0081 7B01           2768             MOV     R3,#01H
0083 7A00     F     2769             MOV     R2,#HIGH (guchCompleteGSMDataPacket)
0085 7900     F     2770             MOV     R1,#LOW (guchCompleteGSMDataPacket)
0087 120000   F     2771             LCALL   _strcat
                    2772     ;                       strcat(guchCompleteGSMDataPacket, guchLatitude);
                    2773                             ; SOURCE LINE # 459
008A 900000   F     2774             MOV     DPTR,#?_strcat?BYTE+03H
008D 7401           2775             MOV     A,#01H
008F F0             2776             MOVX    @DPTR,A
0090 A3             2777             INC     DPTR
0091 7400     F     2778             MOV     A,#HIGH (guchLatitude)
0093 F0             2779             MOVX    @DPTR,A
0094 A3             2780             INC     DPTR
0095 7400     F     2781             MOV     A,#LOW (guchLatitude)
0097 F0             2782             MOVX    @DPTR,A
0098 7B01           2783             MOV     R3,#01H
009A 7A00     F     2784             MOV     R2,#HIGH (guchCompleteGSMDataPacket)
009C 7900     F     2785             MOV     R1,#LOW (guchCompleteGSMDataPacket)
009E 120000   F     2786             LCALL   _strcat
                    2787     ;                       strcat(guchCompleteGSMDataPacket,"N ");
                    2788                             ; SOURCE LINE # 460
00A1 900000   F     2789             MOV     DPTR,#?_strcat?BYTE+03H
00A4 74FF           2790             MOV     A,#0FFH
00A6 F0             2791             MOVX    @DPTR,A
00A7 A3             2792             INC     DPTR
00A8 7400     F     2793             MOV     A,#HIGH (?SC_683)
00AA F0             2794             MOVX    @DPTR,A
00AB A3             2795             INC     DPTR
00AC 7400     F     2796             MOV     A,#LOW (?SC_683)
00AE F0             2797             MOVX    @DPTR,A
00AF 7B01           2798             MOV     R3,#01H
00B1 7A00     F     2799             MOV     R2,#HIGH (guchCompleteGSMDataPacket)
00B3 7900     F     2800             MOV     R1,#LOW (guchCompleteGSMDataPacket)
00B5 120000   F     2801             LCALL   _strcat
                    2802     ;                       strcat(guchCompleteGSMDataPacket, guchLongitude);
                    2803                             ; SOURCE LINE # 461
00B8 900000   F     2804             MOV     DPTR,#?_strcat?BYTE+03H
00BB 7401           2805             MOV     A,#01H
00BD F0             2806             MOVX    @DPTR,A
00BE A3             2807             INC     DPTR
00BF 7400     F     2808             MOV     A,#HIGH (guchLongitude)
00C1 F0             2809             MOVX    @DPTR,A
A51 MACRO ASSEMBLER  PROJECTMAIN                                                          11/09/2012 17:30:11 PAGE    48

00C2 A3             2810             INC     DPTR
00C3 7400     F     2811             MOV     A,#LOW (guchLongitude)
00C5 F0             2812             MOVX    @DPTR,A
00C6 7B01           2813             MOV     R3,#01H
00C8 7A00     F     2814             MOV     R2,#HIGH (guchCompleteGSMDataPacket)
00CA 7900     F     2815             MOV     R1,#LOW (guchCompleteGSMDataPacket)
00CC 120000   F     2816             LCALL   _strcat
                    2817     ;                       strcat(guchCompleteGSMDataPacket,"E");
                    2818                             ; SOURCE LINE # 462
00CF 900000   F     2819             MOV     DPTR,#?_strcat?BYTE+03H
00D2 74FF           2820             MOV     A,#0FFH
00D4 F0             2821             MOVX    @DPTR,A
00D5 A3             2822             INC     DPTR
00D6 7400     F     2823             MOV     A,#HIGH (?SC_686)
00D8 F0             2824             MOVX    @DPTR,A
00D9 A3             2825             INC     DPTR
00DA 7400     F     2826             MOV     A,#LOW (?SC_686)
00DC F0             2827             MOVX    @DPTR,A
00DD 7B01           2828             MOV     R3,#01H
00DF 7A00     F     2829             MOV     R2,#HIGH (guchCompleteGSMDataPacket)
00E1 7900     F     2830             MOV     R1,#LOW (guchCompleteGSMDataPacket)
00E3 120000   F     2831             LCALL   _strcat
                    2832     ;                       fnGSMSendMessage(guchGSMPhoneNumber,guchCompleteGSMDataPacket); 
                    2833                             ; SOURCE LINE # 463
00E6 900000   F     2834             MOV     DPTR,#?_fnGSMSendMessage?BYTE+03H
00E9 7401           2835             MOV     A,#01H
00EB F0             2836             MOVX    @DPTR,A
00EC A3             2837             INC     DPTR
00ED 7400     F     2838             MOV     A,#HIGH (guchCompleteGSMDataPacket)
00EF F0             2839             MOVX    @DPTR,A
00F0 A3             2840             INC     DPTR
00F1 7400     F     2841             MOV     A,#LOW (guchCompleteGSMDataPacket)
00F3 F0             2842             MOVX    @DPTR,A
00F4 7B01           2843             MOV     R3,#01H
00F6 7A00     F     2844             MOV     R2,#HIGH (guchGSMPhoneNumber)
00F8 7900     F     2845             MOV     R1,#LOW (guchGSMPhoneNumber)
00FA 120000   F     2846             LCALL   _fnGSMSendMessage
                    2847     ; 
                    2848     ;                       fnModuleSelect(SELECT_PC_ON_UART);
                    2849                             ; SOURCE LINE # 465
00FD 7F03           2850             MOV     R7,#03H
00FF 120000   F     2851             LCALL   _fnModuleSelect
                    2852     ;                       printf("\n Message Sent with this Body \n");
                    2853                             ; SOURCE LINE # 466
0102 7BFF           2854             MOV     R3,#0FFH
0104 7A00     F     2855             MOV     R2,#HIGH (?SC_1247)
0106 7900     F     2856             MOV     R1,#LOW (?SC_1247)
0108 120000   F     2857             LCALL   _printf
                    2858     ;                       printf("%s\n", guchCompleteGSMDataPacket);              
                    2859                             ; SOURCE LINE # 467
010B 900000   F     2860             MOV     DPTR,#?_printf?BYTE+03H
010E 7401           2861             MOV     A,#01H
0110 F0             2862             MOVX    @DPTR,A
0111 A3             2863             INC     DPTR
0112 7400     F     2864             MOV     A,#HIGH (guchCompleteGSMDataPacket)
0114 F0             2865             MOVX    @DPTR,A
0115 A3             2866             INC     DPTR
0116 7400     F     2867             MOV     A,#LOW (guchCompleteGSMDataPacket)
0118 F0             2868             MOVX    @DPTR,A
0119 7BFF           2869             MOV     R3,#0FFH
011B 7A00     F     2870             MOV     R2,#HIGH (?SC_1279)
011D 7900     F     2871             MOV     R1,#LOW (?SC_1279)
011F 120000   F     2872             LCALL   _printf
                    2873     ;               
                    2874     ;               }
                    2875                             ; SOURCE LINE # 469
A51 MACRO ASSEMBLER  PROJECTMAIN                                                          11/09/2012 17:30:11 PAGE    49

                    2876     ;       }
                    2877                             ; SOURCE LINE # 470
                    2878     ; }                     ; SOURCE LINE # 471
0122                2879     ?C0048:
0122 22             2880             RET     
                    2881     ; END OF fnDecryptCommandsInSMS
                    2882     
                    2883             END
A51 MACRO ASSEMBLER  PROJECTMAIN                                                          11/09/2012 17:30:11 PAGE    50

SYMBOL TABLE LISTING
------ ----- -------


N A M E                                    T Y P E  V A L U E   ATTRIBUTES

?C0002. . . . . . . . . . . . . . . . .    C ADDR   000EH   R   SEG=?PR?_FNMODULESELECT?PROJECTMAIN
?C0003. . . . . . . . . . . . . . . . .    C ADDR   0010H   R   SEG=?PR?_FNMODULESELECT?PROJECTMAIN
?C0004. . . . . . . . . . . . . . . . .    C ADDR   0015H   R   SEG=?PR?_FNMODULESELECT?PROJECTMAIN
?C0005. . . . . . . . . . . . . . . . .    C ADDR   001AH   R   SEG=?PR?_FNMODULESELECT?PROJECTMAIN
?C0007. . . . . . . . . . . . . . . . .    C ADDR   0023H   R   SEG=?PR?_FNMODULESELECT?PROJECTMAIN
?C0008. . . . . . . . . . . . . . . . .    C ADDR   0019H   R   SEG=?PR?FNPROJECTMAIN?PROJECTMAIN
?C0009. . . . . . . . . . . . . . . . .    C ADDR   0079H   R   SEG=?PR?FNPROJECTMAIN?PROJECTMAIN
?C0011. . . . . . . . . . . . . . . . .    C ADDR   011CH   R   SEG=?PR?FNPROJECTMAIN?PROJECTMAIN
?C0013. . . . . . . . . . . . . . . . .    C ADDR   016BH   R   SEG=?PR?FNPROJECTMAIN?PROJECTMAIN
?C0014. . . . . . . . . . . . . . . . .    C ADDR   0141H   R   SEG=?PR?FNPROJECTMAIN?PROJECTMAIN
?C0015. . . . . . . . . . . . . . . . .    C ADDR   0144H   R   SEG=?PR?FNPROJECTMAIN?PROJECTMAIN
?C0016. . . . . . . . . . . . . . . . .    C ADDR   019AH   R   SEG=?PR?FNPROJECTMAIN?PROJECTMAIN
?C0017. . . . . . . . . . . . . . . . .    C ADDR   01B5H   R   SEG=?PR?FNPROJECTMAIN?PROJECTMAIN
?C0018. . . . . . . . . . . . . . . . .    C ADDR   01BBH   R   SEG=?PR?FNPROJECTMAIN?PROJECTMAIN
?C0020. . . . . . . . . . . . . . . . .    C ADDR   020CH   R   SEG=?PR?FNPROJECTMAIN?PROJECTMAIN
?C0021. . . . . . . . . . . . . . . . .    C ADDR   0238H   R   SEG=?PR?FNPROJECTMAIN?PROJECTMAIN
?C0022. . . . . . . . . . . . . . . . .    C ADDR   0274H   R   SEG=?PR?FNPROJECTMAIN?PROJECTMAIN
?C0023. . . . . . . . . . . . . . . . .    C ADDR   027AH   R   SEG=?PR?FNPROJECTMAIN?PROJECTMAIN
?C0024. . . . . . . . . . . . . . . . .    C ADDR   027FH   R   SEG=?PR?FNPROJECTMAIN?PROJECTMAIN
?C0025. . . . . . . . . . . . . . . . .    C ADDR   02A6H   R   SEG=?PR?FNPROJECTMAIN?PROJECTMAIN
?C0026. . . . . . . . . . . . . . . . .    C ADDR   0348H   R   SEG=?PR?FNPROJECTMAIN?PROJECTMAIN
?C0029. . . . . . . . . . . . . . . . .    C ADDR   034BH   R   SEG=?PR?FNPROJECTMAIN?PROJECTMAIN
?C0031. . . . . . . . . . . . . . . . .    C ADDR   0015H   R   SEG=?PR?FNVEHICLEONTHEWAY?PROJECTMAIN
?C0033. . . . . . . . . . . . . . . . .    C ADDR   0006H   R   SEG=?PR?CHFNTOCHECKVEHICLEREACHEDTODESTINATION?PROJECTMA
                                    3     IN
?C0034. . . . . . . . . . . . . . . . .    C ADDR   0008H   R   SEG=?PR?CHFNTOCHECKVEHICLEREACHEDTODESTINATION?PROJECTMA
                                    3     IN
?C0040. . . . . . . . . . . . . . . . .    C ADDR   00A4H   R   SEG=?PR?FNTOCHECKINBOXSTATUSANDDECRYPTCOMMANDSIFANYSMS?P
                                    3     ROJECTMAIN
?C0041. . . . . . . . . . . . . . . . .    C ADDR   001BH   R   SEG=?PR?FNTOCHECKINBOXSTATUSANDDECRYPTCOMMANDSIFANYSMS?P
                                    3     ROJECTMAIN
?C0042. . . . . . . . . . . . . . . . .    C ADDR   005AH   R   SEG=?PR?FNTOCHECKINBOXSTATUSANDDECRYPTCOMMANDSIFANYSMS?P
                                    3     ROJECTMAIN
?C0043. . . . . . . . . . . . . . . . .    C ADDR   0093H   R   SEG=?PR?FNTOCHECKINBOXSTATUSANDDECRYPTCOMMANDSIFANYSMS?P
                                    3     ROJECTMAIN
?C0044. . . . . . . . . . . . . . . . .    C ADDR   009BH   R   SEG=?PR?FNTOCHECKINBOXSTATUSANDDECRYPTCOMMANDSIFANYSMS?P
                                    3     ROJECTMAIN
?C0048. . . . . . . . . . . . . . . . .    C ADDR   0122H   R   SEG=?PR?FNDECRYPTCOMMANDSINSMS?PROJECTMAIN
?C0049. . . . . . . . . . . . . . . . .    C ADDR   0077H   R   SEG=?PR?FNPROJECTMAIN?PROJECTMAIN
?C0050. . . . . . . . . . . . . . . . .    C ADDR   001FH   R   SEG=?PR?_FNMODULESELECT?PROJECTMAIN
?C0051. . . . . . . . . . . . . . . . .    C ADDR   0348H   R   SEG=?PR?FNPROJECTMAIN?PROJECTMAIN
?C0052. . . . . . . . . . . . . . . . .    C ADDR   0099H   R   SEG=?PR?FNTOCHECKINBOXSTATUSANDDECRYPTCOMMANDSIFANYSMS?P
                                    3     ROJECTMAIN
?C0053. . . . . . . . . . . . . . . . .    C ADDR   00A1H   R   SEG=?PR?FNTOCHECKINBOXSTATUSANDDECRYPTCOMMANDSIFANYSMS?P
                                    3     ROJECTMAIN
?C?IMUL . . . . . . . . . . . . . . . .    C ADDR   -----       EXT
?C?STRCPY . . . . . . . . . . . . . . .    C ADDR   -----       EXT
?CO?PROJECTMAIN . . . . . . . . . . . .    C SEG    05C7H       REL=UNIT
?FNPROJECTMAIN?BYTE . . . . . . . . . .    X ADDR   0000H   R   SEG=?XD?FNPROJECTMAIN?PROJECTMAIN
?PR?CHFNTOCHECKVEHICLEREACHEDTODESTINATION?C SEG TMA0009H       REL=UNIT
?PR?FNCARGOTAMPERED?PROJECTMAIN . . . .    C SEG    01CFH       REL=UNIT
?PR?FNDECRYPTCOMMANDSINSMS?PROJECTMAIN.    C SEG    0123H       REL=UNIT
?PR?FNINITIALISATIONATDESTINATION?PROJECTMAC SEG    00F3H       REL=UNIT
?PR?FNINVALIDAUTHORISATIONATDESTINATION?PROC SEG IN 0107H       REL=UNIT
?PR?FNPROJECTMAIN?PROJECTMAIN . . . . .    C SEG    0352H       REL=UNIT
?PR?FNTOCHECKINBOXSTATUSANDDECRYPTCOMMANDSIC SEG S?P00C2HTMAIN  REL=UNIT
?PR?FNTOSENDALERTMSGFROMDESTINATION?PROJECTC SEG    01C9H       REL=UNIT
?PR?FNVEHICLEONTHEWAY?PROJECTMAIN . . .    C SEG    0028H       REL=UNIT
?PR?_FNMODULESELECT?PROJECTMAIN . . . .    C SEG    0024H       REL=UNIT
?SC_0 . . . . . . . . . . . . . . . . .    C ADDR   0000H   R   SEG=?CO?PROJECTMAIN
A51 MACRO ASSEMBLER  PROJECTMAIN                                                          11/09/2012 17:30:11 PAGE    51

?SC_1018. . . . . . . . . . . . . . . .    C ADDR   03FAH   R   SEG=?CO?PROJECTMAIN
?SC_1033. . . . . . . . . . . . . . . .    C ADDR   0409H   R   SEG=?CO?PROJECTMAIN
?SC_1058. . . . . . . . . . . . . . . .    C ADDR   0422H   R   SEG=?CO?PROJECTMAIN
?SC_1072. . . . . . . . . . . . . . . .    C ADDR   0430H   R   SEG=?CO?PROJECTMAIN
?SC_1094. . . . . . . . . . . . . . . .    C ADDR   0446H   R   SEG=?CO?PROJECTMAIN
?SC_1152. . . . . . . . . . . . . . . .    C ADDR   0480H   R   SEG=?CO?PROJECTMAIN
?SC_1175. . . . . . . . . . . . . . . .    C ADDR   0497H   R   SEG=?CO?PROJECTMAIN
?SC_1180. . . . . . . . . . . . . . . .    C ADDR   049CH   R   SEG=?CO?PROJECTMAIN
?SC_1187. . . . . . . . . . . . . . . .    C ADDR   04A3H   R   SEG=?CO?PROJECTMAIN
?SC_1224. . . . . . . . . . . . . . . .    C ADDR   04C8H   R   SEG=?CO?PROJECTMAIN
?SC_1247. . . . . . . . . . . . . . . .    C ADDR   04DFH   R   SEG=?CO?PROJECTMAIN
?SC_1279. . . . . . . . . . . . . . . .    C ADDR   04FFH   R   SEG=?CO?PROJECTMAIN
?SC_134 . . . . . . . . . . . . . . . .    C ADDR   0086H   R   SEG=?CO?PROJECTMAIN
?SC_166 . . . . . . . . . . . . . . . .    C ADDR   00A6H   R   SEG=?CO?PROJECTMAIN
?SC_183 . . . . . . . . . . . . . . . .    C ADDR   00B7H   R   SEG=?CO?PROJECTMAIN
?SC_201 . . . . . . . . . . . . . . . .    C ADDR   00C9H   R   SEG=?CO?PROJECTMAIN
?SC_218 . . . . . . . . . . . . . . . .    C ADDR   00DAH   R   SEG=?CO?PROJECTMAIN
?SC_236 . . . . . . . . . . . . . . . .    C ADDR   00ECH   R   SEG=?CO?PROJECTMAIN
?SC_253 . . . . . . . . . . . . . . . .    C ADDR   00FDH   R   SEG=?CO?PROJECTMAIN
?SC_280 . . . . . . . . . . . . . . . .    C ADDR   0118H   R   SEG=?CO?PROJECTMAIN
?SC_297 . . . . . . . . . . . . . . . .    C ADDR   0129H   R   SEG=?CO?PROJECTMAIN
?SC_314 . . . . . . . . . . . . . . . .    C ADDR   013AH   R   SEG=?CO?PROJECTMAIN
?SC_335 . . . . . . . . . . . . . . . .    C ADDR   014FH   R   SEG=?CO?PROJECTMAIN
?SC_352 . . . . . . . . . . . . . . . .    C ADDR   0160H   R   SEG=?CO?PROJECTMAIN
?SC_369 . . . . . . . . . . . . . . . .    C ADDR   0171H   R   SEG=?CO?PROJECTMAIN
?SC_420 . . . . . . . . . . . . . . . .    C ADDR   01A4H   R   SEG=?CO?PROJECTMAIN
?SC_43. . . . . . . . . . . . . . . . .    C ADDR   002BH   R   SEG=?CO?PROJECTMAIN
?SC_450 . . . . . . . . . . . . . . . .    C ADDR   01C2H   R   SEG=?CO?PROJECTMAIN
?SC_468 . . . . . . . . . . . . . . . .    C ADDR   01D4H   R   SEG=?CO?PROJECTMAIN
?SC_489 . . . . . . . . . . . . . . . .    C ADDR   01E9H   R   SEG=?CO?PROJECTMAIN
?SC_514 . . . . . . . . . . . . . . . .    C ADDR   0202H   R   SEG=?CO?PROJECTMAIN
?SC_531 . . . . . . . . . . . . . . . .    C ADDR   0213H   R   SEG=?CO?PROJECTMAIN
?SC_551 . . . . . . . . . . . . . . . .    C ADDR   0227H   R   SEG=?CO?PROJECTMAIN
?SC_568 . . . . . . . . . . . . . . . .    C ADDR   0238H   R   SEG=?CO?PROJECTMAIN
?SC_585 . . . . . . . . . . . . . . . .    C ADDR   0249H   R   SEG=?CO?PROJECTMAIN
?SC_617 . . . . . . . . . . . . . . . .    C ADDR   0269H   R   SEG=?CO?PROJECTMAIN
?SC_661 . . . . . . . . . . . . . . . .    C ADDR   0295H   R   SEG=?CO?PROJECTMAIN
?SC_683 . . . . . . . . . . . . . . . .    C ADDR   02ABH   R   SEG=?CO?PROJECTMAIN
?SC_686 . . . . . . . . . . . . . . . .    C ADDR   02AEH   R   SEG=?CO?PROJECTMAIN
?SC_688 . . . . . . . . . . . . . . . .    C ADDR   02B0H   R   SEG=?CO?PROJECTMAIN
?SC_732 . . . . . . . . . . . . . . . .    C ADDR   02DCH   R   SEG=?CO?PROJECTMAIN
?SC_754 . . . . . . . . . . . . . . . .    C ADDR   02F2H   R   SEG=?CO?PROJECTMAIN
?SC_757 . . . . . . . . . . . . . . . .    C ADDR   02F5H   R   SEG=?CO?PROJECTMAIN
?SC_760 . . . . . . . . . . . . . . . .    C ADDR   02F8H   R   SEG=?CO?PROJECTMAIN
?SC_776 . . . . . . . . . . . . . . . .    C ADDR   0308H   R   SEG=?CO?PROJECTMAIN
?SC_79. . . . . . . . . . . . . . . . .    C ADDR   004FH   R   SEG=?CO?PROJECTMAIN
?SC_836 . . . . . . . . . . . . . . . .    C ADDR   0344H   R   SEG=?CO?PROJECTMAIN
?SC_853 . . . . . . . . . . . . . . . .    C ADDR   0355H   R   SEG=?CO?PROJECTMAIN
?SC_877 . . . . . . . . . . . . . . . .    C ADDR   036DH   R   SEG=?CO?PROJECTMAIN
?SC_893 . . . . . . . . . . . . . . . .    C ADDR   037DH   R   SEG=?CO?PROJECTMAIN
?SC_923 . . . . . . . . . . . . . . . .    C ADDR   039BH   R   SEG=?CO?PROJECTMAIN
?SC_951 . . . . . . . . . . . . . . . .    C ADDR   03B7H   R   SEG=?CO?PROJECTMAIN
?SC_968 . . . . . . . . . . . . . . . .    C ADDR   03C8H   R   SEG=?CO?PROJECTMAIN
?SC_998 . . . . . . . . . . . . . . . .    C ADDR   03E6H   R   SEG=?CO?PROJECTMAIN
?XD?FNPROJECTMAIN?PROJECTMAIN . . . . .    X SEG    0003H       REL=UNIT
?XD?PROJECTMAIN . . . . . . . . . . . .    X SEG    0032H       REL=UNIT
?_FNGSMSENDMESSAGE?BYTE . . . . . . . .    X ADDR   -----       EXT
?_PRINTF?BYTE . . . . . . . . . . . . .    X ADDR   -----       EXT
?_STRCAT?BYTE . . . . . . . . . . . . .    X ADDR   -----       EXT
?_STRSTR?BYTE . . . . . . . . . . . . .    X ADDR   -----       EXT
AC. . . . . . . . . . . . . . . . . . .    B ADDR   00D0H.6 A   
ACC . . . . . . . . . . . . . . . . . .    D ADDR   00E0H   A   
B . . . . . . . . . . . . . . . . . . .    D ADDR   00F0H   A   
BUZZER_PIN. . . . . . . . . . . . . . .    B ADDR   0080H.0 A   
CHFNTOCHECKVEHICLEREACHEDTODESTINATION.    C ADDR   0000H   R   SEG=?PR?CHFNTOCHECKVEHICLEREACHEDTODESTINATION?PROJECTMA
                                    4     IN
A51 MACRO ASSEMBLER  PROJECTMAIN                                                          11/09/2012 17:30:11 PAGE    52

CY. . . . . . . . . . . . . . . . . . .    B ADDR   00D0H.7 A   
DESTINATION_UPDATE. . . . . . . . . . .    X ADDR   0001H   R   SEG=?XD?PROJECTMAIN
DPH . . . . . . . . . . . . . . . . . .    D ADDR   0083H   A   
DPL . . . . . . . . . . . . . . . . . .    D ADDR   0082H   A   
EA. . . . . . . . . . . . . . . . . . .    B ADDR   00A8H.7 A   
EM_LOCK_ENABE_BUTTON. . . . . . . . . .    B ADDR   0080H.2 A   
EM_LOCK_PIN . . . . . . . . . . . . . .    B ADDR   0080H.3 A   
ENABLE_LCD. . . . . . . . . . . . . . .    B ADDR   0090H.3 A   
ES. . . . . . . . . . . . . . . . . . .    B ADDR   00A8H.4 A   
ET0 . . . . . . . . . . . . . . . . . .    B ADDR   00A8H.1 A   
ET1 . . . . . . . . . . . . . . . . . .    B ADDR   00A8H.3 A   
EWINDICATOR . . . . . . . . . . . . . .    X ADDR   -----       EXT
EX0 . . . . . . . . . . . . . . . . . .    B ADDR   00A8H.0 A   
EX1 . . . . . . . . . . . . . . . . . .    B ADDR   00A8H.2 A   
F0. . . . . . . . . . . . . . . . . . .    B ADDR   00D0H.5 A   
FNCARGOTAMPERED . . . . . . . . . . . .    C ADDR   0000H   R   SEG=?PR?FNCARGOTAMPERED?PROJECTMAIN
FNDECRYPTCOMMANDSINSMS. . . . . . . . .    C ADDR   0000H   R   SEG=?PR?FNDECRYPTCOMMANDSINSMS?PROJECTMAIN
FNDELETEALLMESSAGES . . . . . . . . . .    C ADDR   -----       EXT
FNEXTRACTPHONENOANDMESSAGE. . . . . . .    C ADDR   -----       EXT
FNINITIALISATIONATDESTINATION . . . . .    C ADDR   0000H   R   SEG=?PR?FNINITIALISATIONATDESTINATION?PROJECTMAIN
FNINVALIDAUTHORISATIONATDESTINATION . .    C ADDR   0000H   R   SEG=?PR?FNINVALIDAUTHORISATIONATDESTINATION?PROJECTMAIN
FNPROJECTMAIN . . . . . . . . . . . . .    C ADDR   0000H   R   SEG=?PR?FNPROJECTMAIN?PROJECTMAIN
FNTOCHECKINBOXSTATUSANDDECRYPTCOMMANDSIFANYC ADDR   0000H   R   SEG=?PR?FNTOCHECKINBOXSTATUSANDDECRYPTCOMMANDSIFANYSMS?P
                                    5     ROJECTMAIN
FNTOSENDALERTMSGFROMDESTINATION . . . .    C ADDR   0000H   R   SEG=?PR?FNTOSENDALERTMSGFROMDESTINATION?PROJECTMAIN
FNVEHICLEONTHEWAY . . . . . . . . . . .    C ADDR   0000H   R   SEG=?PR?FNVEHICLEONTHEWAY?PROJECTMAIN
FN_GETGPSCOORDINATES. . . . . . . . . .    C ADDR   -----       EXT
FN_GSM_RECIEVE_INIT . . . . . . . . . .    C ADDR   -----       EXT
FN_GSM_SEND_INIT. . . . . . . . . . . .    C ADDR   -----       EXT
FN_RECEIVE_SERIAL . . . . . . . . . . .    C ADDR   -----       EXT
GUCHCOMPLETEGSMDATAPACKET . . . . . . .    X ADDR   -----       EXT
GUCHGSMPHONENUMBER. . . . . . . . . . .    X ADDR   -----       EXT
GUCHLATITUDE. . . . . . . . . . . . . .    X ADDR   -----       EXT
GUCHLONGITUDE . . . . . . . . . . . . .    X ADDR   -----       EXT
GUCHMESSAGEPACKET . . . . . . . . . . .    X ADDR   -----       EXT
GUCHPHONENUMBERPACKET . . . . . . . . .    X ADDR   -----       EXT
IE. . . . . . . . . . . . . . . . . . .    D ADDR   00A8H   A   
IE0 . . . . . . . . . . . . . . . . . .    B ADDR   0088H.1 A   
IE1 . . . . . . . . . . . . . . . . . .    B ADDR   0088H.3 A   
INT0. . . . . . . . . . . . . . . . . .    B ADDR   00B0H.2 A   
INT1. . . . . . . . . . . . . . . . . .    B ADDR   00B0H.3 A   
IP. . . . . . . . . . . . . . . . . . .    D ADDR   00B8H   A   
IT0 . . . . . . . . . . . . . . . . . .    B ADDR   0088H.0 A   
IT1 . . . . . . . . . . . . . . . . . .    B ADDR   0088H.2 A   
K?142 . . . . . . . . . . . . . . . . .    X ADDR   0000H   R   SEG=?XD?FNPROJECTMAIN?PROJECTMAIN
KEYBOARD_KEY_1. . . . . . . . . . . . .    B ADDR   00A0H.0 A   
KEYBOARD_KEY_10 . . . . . . . . . . . .    B ADDR   0080H.6 A   
KEYBOARD_KEY_11 . . . . . . . . . . . .    B ADDR   0080H.5 A   
KEYBOARD_KEY_12 . . . . . . . . . . . .    B ADDR   0080H.4 A   
KEYBOARD_KEY_2. . . . . . . . . . . . .    B ADDR   00A0H.1 A   
KEYBOARD_KEY_3. . . . . . . . . . . . .    B ADDR   00A0H.2 A   
KEYBOARD_KEY_4. . . . . . . . . . . . .    B ADDR   00A0H.3 A   
KEYBOARD_KEY_5. . . . . . . . . . . . .    B ADDR   00A0H.4 A   
KEYBOARD_KEY_6. . . . . . . . . . . . .    B ADDR   00A0H.5 A   
KEYBOARD_KEY_7. . . . . . . . . . . . .    B ADDR   00A0H.6 A   
KEYBOARD_KEY_8. . . . . . . . . . . . .    B ADDR   00A0H.7 A   
KEYBOARD_KEY_9. . . . . . . . . . . . .    B ADDR   0080H.7 A   
KEY_PRESSED . . . . . . . . . . . . . .    X ADDR   -----       EXT
L?0054. . . . . . . . . . . . . . . . .    C ADDR   0000H   R   SEG=?PR?_FNMODULESELECT?PROJECTMAIN
LCD_D4_LSB. . . . . . . . . . . . . . .    B ADDR   0090H.4 A   
LCD_D5. . . . . . . . . . . . . . . . .    B ADDR   0090H.5 A   
LCD_D6. . . . . . . . . . . . . . . . .    B ADDR   0090H.6 A   
LCD_D7_MSB. . . . . . . . . . . . . . .    B ADDR   0090H.7 A   
MODULESELECT0 . . . . . . . . . . . . .    B ADDR   00B0H.7 A   
MODULESELECT1 . . . . . . . . . . . . .    B ADDR   00B0H.6 A   
NSINDICATOR . . . . . . . . . . . . . .    X ADDR   -----       EXT
A51 MACRO ASSEMBLER  PROJECTMAIN                                                          11/09/2012 17:30:11 PAGE    53

OV. . . . . . . . . . . . . . . . . . .    B ADDR   00D0H.2 A   
P . . . . . . . . . . . . . . . . . . .    B ADDR   00D0H.0 A   
P0. . . . . . . . . . . . . . . . . . .    D ADDR   0080H   A   
P1. . . . . . . . . . . . . . . . . . .    D ADDR   0090H   A   
P2. . . . . . . . . . . . . . . . . . .    D ADDR   00A0H   A   
P3. . . . . . . . . . . . . . . . . . .    D ADDR   00B0H   A   
PCON. . . . . . . . . . . . . . . . . .    D ADDR   0087H   A   
PHONE_NUMBERFOR_VB. . . . . . . . . . .    C ADDR   058BH   R   SEG=?CO?PROJECTMAIN
PHONE_NUMBERS . . . . . . . . . . . . .    C ADDR   059FH   R   SEG=?CO?PROJECTMAIN
PROJECTMAIN . . . . . . . . . . . . . .    N NUMB   -----       
PS. . . . . . . . . . . . . . . . . . .    B ADDR   00B8H.4 A   
PSW . . . . . . . . . . . . . . . . . .    D ADDR   00D0H   A   
PT0 . . . . . . . . . . . . . . . . . .    B ADDR   00B8H.1 A   
PT1 . . . . . . . . . . . . . . . . . .    B ADDR   00B8H.3 A   
PX0 . . . . . . . . . . . . . . . . . .    B ADDR   00B8H.0 A   
PX1 . . . . . . . . . . . . . . . . . .    B ADDR   00B8H.2 A   
RB8 . . . . . . . . . . . . . . . . . .    B ADDR   0098H.2 A   
RD. . . . . . . . . . . . . . . . . . .    B ADDR   00B0H.7 A   
REN . . . . . . . . . . . . . . . . . .    B ADDR   0098H.4 A   
RFID_CARD_NO. . . . . . . . . . . . . .    X ADDR   0021H   R   SEG=?XD?PROJECTMAIN
RFID_COUNT. . . . . . . . . . . . . . .    X ADDR   0002H   R   SEG=?XD?PROJECTMAIN
RI. . . . . . . . . . . . . . . . . . .    B ADDR   0098H.0 A   
RS0 . . . . . . . . . . . . . . . . . .    B ADDR   00D0H.3 A   
RS1 . . . . . . . . . . . . . . . . . .    B ADDR   00D0H.4 A   
RS_LCD. . . . . . . . . . . . . . . . .    B ADDR   0090H.2 A   
RXD . . . . . . . . . . . . . . . . . .    B ADDR   00B0H.0 A   
SBUF. . . . . . . . . . . . . . . . . .    D ADDR   0099H   A   
SCON. . . . . . . . . . . . . . . . . .    D ADDR   0098H   A   
SM0 . . . . . . . . . . . . . . . . . .    B ADDR   0098H.7 A   
SM1 . . . . . . . . . . . . . . . . . .    B ADDR   0098H.6 A   
SM2 . . . . . . . . . . . . . . . . . .    B ADDR   0098H.5 A   
SP. . . . . . . . . . . . . . . . . . .    D ADDR   0081H   A   
STRING_IAMACTIVE. . . . . . . . . . . .    C ADDR   0503H   R   SEG=?CO?PROJECTMAIN
STRING_NAMES. . . . . . . . . . . . . .    C ADDR   0547H   R   SEG=?CO?PROJECTMAIN
STRING_PROJECT_NAME . . . . . . . . . .    C ADDR   0525H   R   SEG=?CO?PROJECTMAIN
STRING_PROJECT_PARTNERS . . . . . . . .    C ADDR   0536H   R   SEG=?CO?PROJECTMAIN
STRING_WELCOME. . . . . . . . . . . . .    C ADDR   0514H   R   SEG=?CO?PROJECTMAIN
T0. . . . . . . . . . . . . . . . . . .    B ADDR   00B0H.4 A   
T1. . . . . . . . . . . . . . . . . . .    B ADDR   00B0H.5 A   
TB8 . . . . . . . . . . . . . . . . . .    B ADDR   0098H.3 A   
TCON. . . . . . . . . . . . . . . . . .    D ADDR   0088H   A   
TF0 . . . . . . . . . . . . . . . . . .    B ADDR   0088H.5 A   
TF1 . . . . . . . . . . . . . . . . . .    B ADDR   0088H.7 A   
TH0 . . . . . . . . . . . . . . . . . .    D ADDR   008CH   A   
TH1 . . . . . . . . . . . . . . . . . .    D ADDR   008DH   A   
TI. . . . . . . . . . . . . . . . . . .    B ADDR   0098H.1 A   
TL0 . . . . . . . . . . . . . . . . . .    D ADDR   008AH   A   
TL1 . . . . . . . . . . . . . . . . . .    D ADDR   008BH   A   
TMOD. . . . . . . . . . . . . . . . . .    D ADDR   0089H   A   
TR0 . . . . . . . . . . . . . . . . . .    B ADDR   0088H.4 A   
TR1 . . . . . . . . . . . . . . . . . .    B ADDR   0088H.6 A   
TXD . . . . . . . . . . . . . . . . . .    B ADDR   00B0H.1 A   
UCHBUFF . . . . . . . . . . . . . . . .    X ADDR   0003H   R   SEG=?XD?PROJECTMAIN
UCHFNCHECKINBOXSTATUS . . . . . . . . .    C ADDR   -----       EXT
UCHMSGSTATUS. . . . . . . . . . . . . .    X ADDR   0031H   R   SEG=?XD?PROJECTMAIN
UCHSERIALDATA?141 . . . . . . . . . . .    X ADDR   0002H   R   SEG=?XD?FNPROJECTMAIN?PROJECTMAIN
UCHTEMPVARIABLE . . . . . . . . . . . .    X ADDR   0000H   R   SEG=?XD?PROJECTMAIN
WR. . . . . . . . . . . . . . . . . . .    B ADDR   00B0H.6 A   
_DELAY_IN_SECONDS . . . . . . . . . . .    C ADDR   -----       EXT
_FNGSMSENDMESSAGE . . . . . . . . . . .    C ADDR   -----       EXT
_FNMODULESELECT . . . . . . . . . . . .    C ADDR   0004H   R   SEG=?PR?_FNMODULESELECT?PROJECTMAIN
_FN_DISPLAY_STRING_LCD. . . . . . . . .    C ADDR   -----       EXT
_FN_KEYBOARD_12X1FOR_PASSWORD . . . . .    C ADDR   -----       EXT
_FN_LCD_SELECT_LINE_AND_LOCATION. . . .    C ADDR   -----       EXT
_PRINTF . . . . . . . . . . . . . . . .    C ADDR   -----       EXT
_STRCAT . . . . . . . . . . . . . . . .    C ADDR   -----       EXT
A51 MACRO ASSEMBLER  PROJECTMAIN                                                          11/09/2012 17:30:11 PAGE    54

_STRSTR . . . . . . . . . . . . . . . .    C ADDR   -----       EXT


REGISTER BANK(S) USED: 0 


ASSEMBLY COMPLETE.  0 WARNING(S), 0 ERROR(S)
